(lp0
(lp1
F0.0010188624806145635
aF0.003723807119414289
aF0.00043279114220795616
aF0.0039492191726476
aF0.006618097882929996
aF0.0011090273019078876
aF9.01648212933242e-06
aF9.01648212933242e-06
aF1.803296425866484e-05
aF0.10515923107440402
aF0.010305839073826956
aF0.005779565044902081
aF9.01648212933242e-06
aF9.01648212933242e-06
aF0.012947668337721355
aF0.04172827929455044
aF0.0036697082266382948
aF0.0025877303711184046
aF9.01648212933242e-06
aF9.01648212933242e-06
aF9.01648212933242e-05
aF9.01648212933242e-06
aF9.01648212933242e-06
aF9.01648212933242e-06
aF0.004030367511811591
aF9.01648212933242e-06
aF9.01648212933242e-06
aF9.01648212933242e-06
aF9.01648212933242e-06
aF9.01648212933242e-06
aF0.167814765391135
aF0.007222202185595268
aF0.010468135752154939
aF0.0004688570707252858
aF0.001072961373390558
aF9.01648212933242e-06
aF9.918130342265661e-05
aF6.311537490532694e-05
aF0.021143650593284526
aF0.002777076495834385
aF0.0017672304973491543
aF0.026553539870883977
aF0.0008024669095105854
aF0.00249756554982508
aF4.50824106466621e-05
aF0.055063656363833084
aF0.00038770873156129403
aF0.017131316045731596
aF0.006401702311826018
aF0.0065459660258953365
aF1.803296425866484e-05
aF0.032089659898294084
aF0.0010819778555198904
aF0.037508565658022866
aF0.008114833916399177
aF0.0038049554585782813
aF0.00033360983878529953
aF0.0009737800699679013
aF0.00249756554982508
aF0.08138276769935442
aF0.0071681032928192735
aF0.01371406931871461
aF0.08501640999747538
aF0.006122191365816713
aF0.01787968406246619
aF0.005563169473798103
aF0.002335268871497097
aF0.053494788473329245
aF0.010900926894362895
aF0.0020467414433584592
aF0.00015328019619865113
aF0.003525444512568976
aF0.001072961373390558
aF0.002596746853247737
aF9.01648212933242e-06
aF9.01648212933242e-06
aF0.022874815162116348
aF0.001740181050961157
aF0.0009737800699679013
aF0.0003245933566559671
aF0.004120532333104916
aF0.0001893461247159808
aF5.409889277599452e-05
aF5.409889277599452e-05
aF0.0341814837522992
aF0.002191005157427778
aF0.009918130342265661
aF0.0006041043026652721
aF0.011730443250261478
aa(lp2
F0.001052846445568913
aF0.00017726496277435783
aF5.371665538616903e-06
aF0.004560544042285751
aF0.000612369871402327
aF0.002239984529603249
aF5.371665538616903e-06
aF5.371665538616903e-06
aF5.371665538616903e-06
aF0.09621727312770598
aF0.004415509072743095
aF0.006768298578657298
aF5.371665538616903e-06
aF5.371665538616903e-06
aF0.011183807651400392
aF0.02420472491700777
aF0.0016329863237395388
aF0.000499564895091372
aF0.00010206164523372117
aF3.7601658770318326e-05
aF5.371665538616903e-05
aF1.0743331077233807e-05
aF0.00011280497631095497
aF5.371665538616903e-06
aF0.003180025998861207
aF5.371665538616903e-06
aF5.371665538616903e-06
aF5.371665538616903e-06
aF5.371665538616903e-06
aF5.371665538616903e-06
aF0.150116565142188
aF0.010764817739388274
aF0.0027502927557718545
aF0.00014503496954265639
aF0.001171023087418485
aF5.371665538616903e-06
aF5.371665538616903e-06
aF1.0743331077233807e-05
aF0.04876397975956425
aF0.0031853976643998238
aF0.00021486662154467613
aF0.033809262900054794
aF0.00042973324308935226
aF0.0029383010496234463
aF2.6858327693084516e-05
aF0.02090115061075837
aF0.002460222816686542
aF0.011694115877569
aF0.007149686831899099
aF0.00567247880877945
aF5.371665538616903e-06
aF0.04287126266370151
aF0.0013482880501928427
aF0.03448072109238191
aF0.0113127276243272
aF0.0035990159108733252
aF7.520331754063665e-05
aF0.007412898443291327
aF0.001670587982509857
aF0.04924742965803977
aF0.002492452809918243
aF0.005935690420171678
aF0.09564787658061258
aF0.0020734628979061248
aF0.034593526068692856
aF0.004248987441045971
aF0.003228370988708759
aF0.04230186611660811
aF0.01677571147710059
aF0.0018532246108228317
aF0.0028738410631600434
aF0.002374276168068671
aF0.0325093198397095
aF0.00808435663561844
aF5.371665538616903e-06
aF5.371665538616903e-06
aF0.013520482160698746
aF0.0016437296548167724
aF0.0010743331077233808
aF0.0001880082938515916
aF0.0071819168251308005
aF0.00039213158431903396
aF5.371665538616903e-06
aF5.371665538616903e-06
aF0.062112568623027255
aF0.024086548275158194
aF0.013004802268991523
aF0.000166521631697124
aF0.010249137847681052
aa(lp3
F0.00018372221201543268
aF0.0007348888480617307
aF0.00018372221201543268
aF0.000551166636046298
aF0.002939555392246923
aF0.00018372221201543268
aF0.00018372221201543268
aF0.00018372221201543268
aF0.00018372221201543268
aF0.05364688590850634
aF0.000551166636046298
aF0.014697776961234614
aF0.00018372221201543268
aF0.00018372221201543268
aF0.051809663788352014
aF0.013227999265111152
aF0.000551166636046298
aF0.00018372221201543268
aF0.00018372221201543268
aF0.00018372221201543268
aF0.00018372221201543268
aF0.00018372221201543268
aF0.00018372221201543268
aF0.00018372221201543268
aF0.000551166636046298
aF0.00018372221201543268
aF0.00018372221201543268
aF0.00018372221201543268
aF0.00018372221201543268
aF0.00018372221201543268
aF0.0731214403821422
aF0.00018372221201543268
aF0.0009186110600771634
aF0.00018372221201543268
aF0.013044277053095719
aF0.00018372221201543268
aF0.00018372221201543268
aF0.00018372221201543268
aF0.029946720558515525
aF0.00018372221201543268
aF0.0018372221201543267
aF0.11004960499724417
aF0.00018372221201543268
aF0.00275583318023149
aF0.000551166636046298
aF0.037479331251148267
aF0.0009186110600771634
aF0.0020209443321697594
aF0.0062465552085247105
aF0.004409333088370384
aF0.00018372221201543268
aF0.029211831710453794
aF0.00018372221201543268
aF0.001102333272092596
aF0.007900055116663605
aF0.000551166636046298
aF0.00018372221201543268
aF0.00018372221201543268
aF0.0018372221201543267
aF0.033437442586808745
aF0.000551166636046298
aF0.00018372221201543268
aF0.09443321697593239
aF0.0007348888480617307
aF0.0018372221201543267
aF0.0007348888480617307
aF0.0007348888480617307
aF0.10472166084879662
aF0.007900055116663605
aF0.004041888664339519
aF0.0020209443321697594
aF0.018739665625574133
aF0.019658276685651295
aF0.0007348888480617307
aF0.00018372221201543268
aF0.00018372221201543268
aF0.004409333088370384
aF0.001653499908138894
aF0.00018372221201543268
aF0.00018372221201543268
aF0.003858166452324086
aF0.001653499908138894
aF0.00018372221201543268
aF0.00018372221201543268
aF0.20999448833363954
aF0.00036744442403086535
aF0.00036744442403086535
aF0.00018372221201543268
aF0.017086165717435237
aa(lp4
F0.027357522729148733
aF0.04313526644104572
aF8.844026744336875e-05
aF0.00014740044573894793
aF0.012145796728889309
aF0.0004775774441941912
aF5.896017829557916e-06
aF5.896017829557916e-06
aF5.896017829557916e-06
aF0.012741294529674659
aF0.0014268363147530159
aF0.005117743476056272
aF1.1792035659115832e-05
aF5.896017829557916e-06
aF0.007717887338891313
aF0.02051814204686155
aF0.0006839380682287183
aF0.004345365140384185
aF0.0053064160466021245
aF5.896017829557916e-06
aF8.844026744336875e-05
aF1.768805348867375e-05
aF2.3584071318231665e-05
aF0.00014740044573894793
aF0.00183955756282207
aF5.896017829557916e-06
aF5.896017829557916e-06
aF5.896017829557916e-06
aF5.896017829557916e-06
aF5.896017829557916e-06
aF0.11129323255073523
aF0.005548152777614
aF0.014120962701791211
aF0.001491692510878153
aF0.008637666120302348
aF8.844026744336875e-05
aF5.306416046602125e-05
aF0.0009079867457519192
aF0.015913352121976816
aF0.001550652689173732
aF0.0011497234767637937
aF0.024014480619789395
aF0.00353761069773475
aF0.006184922703206254
aF5.896017829557916e-06
aF0.014863860948315507
aF0.00015329646356850582
aF0.002051814204686155
aF0.01811256677240192
aF0.0027829204155513368
aF5.896017829557916e-06
aF0.09822765704043489
aF0.0011143473697864462
aF0.0274459629965921
aF0.005276935957454335
aF0.005842953669091895
aF0.00048347346202374917
aF0.00036555310543259084
aF0.0011202433876160041
aF0.028035564779547894
aF0.0021697345612773132
aF0.005271039939624777
aF0.033913894555617136
aF0.0033371460915297808
aF0.02001108451351957
aF0.11105739183755292
aF0.0008195464783085504
aF0.0918658538023419
aF0.007617655035788829
aF0.0016155088852988692
aF0.0027062721837670836
aF0.004021084159758499
aF0.0033666261806775703
aF0.020559414171668455
aF5.896017829557916e-06
aF5.896017829557916e-06
aF0.01216938080020754
aF0.01482848484133816
aF0.0005247455868306546
aF0.0012381637442071625
aF0.032599082579625724
aF0.0068452767001167415
aF0.0008608186031154559
aF5.896017829557916e-06
aF0.05248045470089502
aF0.007199037769890216
aF0.00905628338620096
aF6.485619612513708e-05
aF0.010005542256759785
aa(lp5
F0.009795048558022504
aF0.01307504188249793
aF0.00034019500234285237
aF0.006393098534593981
aF0.004974549562560577
aF0.0006290398156528214
aF6.418773629110422e-06
aF6.418773629110422e-06
aF6.418773629110422e-06
aF0.06508636459917969
aF0.0022144769020430955
aF0.005603589378213399
aF6.418773629110422e-06
aF6.418773629110422e-06
aF0.008235286566148671
aF0.021689036092764118
aF0.00021823830338975437
aF0.00471137984376705
aF0.001810094163409139
aF4.493141540377296e-05
aF2.5675094516441688e-05
aF6.418773629110422e-06
aF0.00013479424621131887
aF9.628160443665633e-05
aF0.0056934522090209445
aF6.418773629110422e-06
aF6.418773629110422e-06
aF6.418773629110422e-06
aF6.418773629110422e-06
aF6.418773629110422e-06
aF0.16497531981539607
aF0.005860340323377815
aF0.0031066864364894444
aF6.418773629110422e-06
aF0.0019384696359913474
aF6.418773629110422e-06
aF6.418773629110422e-06
aF0.00017972566161509183
aF0.009499784971083424
aF0.0005969459475072692
aF0.00018614443524420224
aF0.06624174385241956
aF0.007137676275570789
aF0.0008151842508970236
aF1.2837547258220844e-05
aF0.016509085774072004
aF0.0003466137759719628
aF0.004486722766748185
aF0.015167562085587928
aF0.0027600726605174816
aF1.9256320887331267e-05
aF0.04847457844704191
aF0.0027857477550339233
aF0.012368976783295783
aF0.0037485637994004867
aF0.00017972566161509183
aF8.986283080754592e-05
aF0.0003787076441175149
aF0.005244138054983215
aF0.041921010571720166
aF0.0006482961365401526
aF0.0016752999171978202
aF0.06258946165745573
aF0.0006162022683946005
aF0.0291925824651942
aF0.0018229317106673599
aF0.005032318525222571
aF0.1297105774970634
aF0.07795600572554608
aF0.0034597189860905175
aF7.060650992021465e-05
aF0.0006675524574274839
aF0.0008986283080754591
aF0.0038063327620624803
aF6.418773629110422e-06
aF6.418773629110422e-06
aF0.017125288042466606
aF0.000699646325573036
aF0.0012388233104183115
aF0.0006868087783148152
aF0.0022722458647050896
aF2.5675094516441688e-05
aF6.418773629110422e-06
aF6.418773629110422e-06
aF0.05596528727221377
aF0.002021913693169783
aF0.010558882619886644
aF0.004486722766748185
aF0.020854595520979763
aa(lp6
F0.06592667339387824
aF0.0679448368651194
aF0.0015136226034308778
aF0.044651866801210895
aF0.025142953245879583
aF8.409014463504877e-05
aF0.002859064917591658
aF0.0005886310124453414
aF0.0006727211570803902
aF0.024386141944164143
aF0.0016818028927009755
aF0.0035317860746720484
aF0.00042045072317524387
aF8.409014463504877e-05
aF0.02253615876219307
aF0.10822401614530777
aF0.01698620921627985
aF0.011183989236461486
aF0.0051294988227379755
aF8.409014463504877e-05
aF8.409014463504877e-05
aF8.409014463504877e-05
aF0.003699966363942146
aF0.0005045408678102926
aF0.00546585940127817
aF8.409014463504877e-05
aF8.409014463504877e-05
aF8.409014463504877e-05
aF8.409014463504877e-05
aF8.409014463504877e-05
aF0.04868819374369324
aF0.0021022536158762195
aF0.01236125126135217
aF8.409014463504877e-05
aF0.012445341405987218
aF0.00042045072317524387
aF0.0005886310124453414
aF0.00016818028927009755
aF0.018415741675075682
aF0.00042045072317524387
aF0.0002522704339051463
aF0.04313824419778002
aF0.0006727211570803902
aF0.005045408678102927
aF8.409014463504877e-05
aF0.015220316178943828
aF0.00042045072317524387
aF0.007820383451059535
aF0.0053817692566431215
aF0.00042045072317524387
aF8.409014463504877e-05
aF0.04145644130507904
aF0.0002522704339051463
aF0.0008409014463504877
aF0.005213588967373024
aF0.002943155062226707
aF8.409014463504877e-05
aF8.409014463504877e-05
aF0.0015977127480659267
aF0.05255634039690548
aF0.005634039690548267
aF0.0037840565085771947
aF0.04414732593340061
aF0.006895391860074
aF0.012445341405987218
aF0.00042045072317524387
aF0.014127144298688193
aF0.10225361587621931
aF0.0030272452068617556
aF0.0027749747729566097
aF0.0011772620248906827
aF0.0011772620248906827
aF8.409014463504877e-05
aF0.0025227043390514633
aF8.409014463504877e-05
aF8.409014463504877e-05
aF0.0013454423141607804
aF0.0002522704339051463
aF0.0023545240497813654
aF0.0002522704339051463
aF0.012781701984527414
aF0.0021022536158762195
aF0.0002522704339051463
aF8.409014463504877e-05
aF0.020938446014127143
aF0.02110662630339724
aF0.0015977127480659267
aF0.0002522704339051463
aF0.042885973763874874
aa(lp7
F0.0001005126143330988
aF0.0001005126143330988
aF0.0001005126143330988
aF0.0012061513719971856
aF0.0001005126143330988
aF0.0002010252286661976
aF0.0001005126143330988
aF0.0001005126143330988
aF0.0001005126143330988
aF0.03447582671625289
aF0.000502563071665494
aF0.03789325560357825
aF0.0001005126143330988
aF0.0001005126143330988
aF0.07759573826515227
aF0.022816363453613427
aF0.0002010252286661976
aF0.00502563071665494
aF0.0001005126143330988
aF0.0001005126143330988
aF0.0001005126143330988
aF0.0001005126143330988
aF0.0001005126143330988
aF0.0001005126143330988
aF0.0022112775153281736
aF0.0001005126143330988
aF0.0001005126143330988
aF0.0001005126143330988
aF0.0001005126143330988
aF0.0001005126143330988
aF0.054980400040205046
aF0.0026133279726605688
aF0.0013066639863302844
aF0.0001005126143330988
aF0.0001005126143330988
aF0.0001005126143330988
aF0.0001005126143330988
aF0.0001005126143330988
aF0.003919991958990853
aF0.0001005126143330988
aF0.0001005126143330988
aF0.2039400944818575
aF0.001507689214996482
aF0.0017087144436626796
aF0.0001005126143330988
aF0.01919790933762187
aF0.0013066639863302844
aF0.0002010252286661976
aF0.017891245351291586
aF0.0002010252286661976
aF0.0001005126143330988
aF0.016886119207960598
aF0.0006030756859985928
aF0.0001005126143330988
aF0.0924716051864509
aF0.001005126143330988
aF0.0001005126143330988
aF0.0001005126143330988
aF0.0001005126143330988
aF0.05618655141220223
aF0.0003015378429992964
aF0.0003015378429992964
aF0.06442858578751633
aF0.0017087144436626796
aF0.0027138405869936676
aF0.0001005126143330988
aF0.004623580259322545
aF0.09538647100211077
aF0.0008041009146647904
aF0.0001005126143330988
aF0.007136395617650015
aF0.018795858880289475
aF0.0009046135289978892
aF0.0031158910443260628
aF0.0001005126143330988
aF0.0001005126143330988
aF0.024424565282943008
aF0.011056387576640868
aF0.0001005126143330988
aF0.0001005126143330988
aF0.0021107649009950748
aF0.0004020504573323952
aF0.0001005126143330988
aF0.0001005126143330988
aF0.0922705799577847
aF0.0003015378429992964
aF0.0012061513719971856
aF0.0001005126143330988
aF0.0057292190169866315
aa(lp8
F0.00017170329670329672
aF0.00017170329670329672
aF0.00017170329670329672
aF0.00017170329670329672
aF0.00017170329670329672
aF0.00017170329670329672
aF0.00017170329670329672
aF0.00017170329670329672
aF0.00017170329670329672
aF0.01150412087912088
aF0.00017170329670329672
aF0.04035027472527473
aF0.00017170329670329672
aF0.00017170329670329672
aF0.007554945054945055
aF0.1509271978021978
aF0.00034340659340659343
aF0.0005151098901098901
aF0.00017170329670329672
aF0.00017170329670329672
aF0.00017170329670329672
aF0.00017170329670329672
aF0.00017170329670329672
aF0.00017170329670329672
aF0.012877747252747252
aF0.00017170329670329672
aF0.00017170329670329672
aF0.00017170329670329672
aF0.00017170329670329672
aF0.00017170329670329672
aF0.1620879120879121
aF0.003949175824175824
aF0.001201923076923077
aF0.00017170329670329672
aF0.00017170329670329672
aF0.00017170329670329672
aF0.00017170329670329672
aF0.00017170329670329672
aF0.023179945054945056
aF0.00017170329670329672
aF0.00017170329670329672
aF0.00017170329670329672
aF0.00017170329670329672
aF0.00017170329670329672
aF0.00017170329670329672
aF0.007039835164835165
aF0.00034340659340659343
aF0.00017170329670329672
aF0.028846153846153848
aF0.0005151098901098901
aF0.00017170329670329672
aF0.007039835164835165
aF0.00017170329670329672
aF0.0010302197802197802
aF0.07709478021978022
aF0.0005151098901098901
aF0.00017170329670329672
aF0.00017170329670329672
aF0.00017170329670329672
aF0.04395604395604396
aF0.00017170329670329672
aF0.00017170329670329672
aF0.07434752747252747
aF0.0010302197802197802
aF0.0013736263736263737
aF0.00017170329670329672
aF0.011160714285714286
aF0.13581730769230768
aF0.00034340659340659343
aF0.00017170329670329672
aF0.0025755494505494505
aF0.016483516483516484
aF0.00017170329670329672
aF0.008928571428571428
aF0.00017170329670329672
aF0.00017170329670329672
aF0.009615384615384616
aF0.006181318681318681
aF0.0013736263736263737
aF0.00017170329670329672
aF0.023351648351648352
aF0.010473901098901098
aF0.00017170329670329672
aF0.00017170329670329672
aF0.10370879120879122
aF0.0018887362637362637
aF0.00034340659340659343
aF0.00017170329670329672
aF0.0013736263736263737
aa(lp9
F0.00014801657785671994
aF0.00014801657785671994
aF0.00014801657785671994
aF0.00014801657785671994
aF0.00014801657785671994
aF0.00014801657785671994
aF0.00014801657785671994
aF0.00014801657785671994
aF0.00014801657785671994
aF0.020870337477797513
aF0.003552397868561279
aF0.0016281823564239194
aF0.00014801657785671994
aF0.00014801657785671994
aF0.0005920663114268798
aF0.0010361160449970396
aF0.0002960331557134399
aF0.0007400828892835998
aF0.00014801657785671994
aF0.00014801657785671994
aF0.00014801657785671994
aF0.00014801657785671994
aF0.00014801657785671994
aF0.00014801657785671994
aF0.0017761989342806395
aF0.00014801657785671994
aF0.00014801657785671994
aF0.00014801657785671994
aF0.00014801657785671994
aF0.00014801657785671994
aF0.020722320899940794
aF0.0026642984014209592
aF0.0017761989342806395
aF0.00014801657785671994
aF0.00014801657785671994
aF0.00014801657785671994
aF0.0004440497335701599
aF0.00014801657785671994
aF0.015097690941385435
aF0.00014801657785671994
aF0.0008880994671403197
aF0.00014801657785671994
aF0.00014801657785671994
aF0.00014801657785671994
aF0.00014801657785671994
aF0.014209591474245116
aF0.0014801657785671995
aF0.0002960331557134399
aF0.02767910005920663
aF0.0014801657785671995
aF0.00014801657785671994
aF0.011101243339253997
aF0.00014801657785671994
aF0.0014801657785671995
aF0.003700414446417999
aF0.0002960331557134399
aF0.00014801657785671994
aF0.00014801657785671994
aF0.00014801657785671994
aF0.009325044404973356
aF0.0008880994671403197
aF0.0004440497335701599
aF0.08052101835405566
aF0.0007400828892835998
aF0.0008880994671403197
aF0.00014801657785671994
aF0.0011841326228537595
aF0.7036708111308466
aF0.0026642984014209592
aF0.00014801657785671994
aF0.009769094138543518
aF0.0017761989342806395
aF0.00014801657785671994
aF0.0005920663114268798
aF0.00014801657785671994
aF0.00014801657785671994
aF0.019834221432800475
aF0.009325044404973356
aF0.0002960331557134399
aF0.00014801657785671994
aF0.0005920663114268798
aF0.0008880994671403197
aF0.00014801657785671994
aF0.00014801657785671994
aF0.008732978093546477
aF0.0002960331557134399
aF0.0019242155121373594
aF0.0002960331557134399
aF0.005032563647128479
aa(lp10
F0.14188116113632732
aF0.16085440688637667
aF0.0024715025419826523
aF0.14402375649591687
aF0.14516083561219023
aF0.028821666525706446
aF0.021294390722937987
aF0.014283969063930159
aF0.011276817682050126
aF9.397348068375105e-06
aF9.397348068375105e-06
aF0.008344845084717093
aF0.005403475139315685
aF0.00015975491716237677
aF0.006033097459896817
aF0.0075742625431103345
aF0.00015035756909400168
aF0.04011727890389332
aF0.011455367295349253
aF9.397348068375105e-06
aF0.010957307847725372
aF3.758939227350042e-05
aF0.018089895031622075
aF0.002603065414939904
aF0.0006766090609230075
aF0.0004040859669401295
aF9.397348068375105e-06
aF1.879469613675021e-05
aF0.0006954037570597577
aF9.397348068375105e-06
aF0.015552611053160798
aF0.00013156287295725146
aF0.0006954037570597577
aF9.397348068375104e-05
aF0.0017667014368545197
aF9.397348068375105e-06
aF9.397348068375105e-06
aF8.457613261537594e-05
aF0.014443723981092536
aF9.397348068375105e-06
aF0.00016915226523075188
aF0.021736066082151617
aF0.003711952487008166
aF0.0004040859669401295
aF2.8192044205125312e-05
aF0.01213197635627226
aF0.0013062313815041396
aF0.00537528309511056
aF0.002255363536410025
aF0.00010337082875212615
aF0.001888866961743396
aF0.01021491735032374
aF0.0004792647514871303
aF0.0002349337017093776
aF0.013297247516750772
aF0.0002443310497777527
aF0.00010337082875212615
aF6.578143647862573e-05
aF0.00010337082875212615
aF0.02119101989418586
aF0.0002067416575042523
aF9.397348068375105e-06
aF0.005929726631144691
aF0.0002631257459145029
aF2.8192044205125312e-05
aF9.397348068375105e-06
aF0.0015693571274186424
aF0.02205557591647637
aF3.758939227350042e-05
aF2.8192044205125312e-05
aF0.0010243109394528864
aF0.0015787544754870175
aF0.0009115427626323852
aF0.001428396906393016
aF9.397348068375105e-06
aF0.002217774144136525
aF0.003495813481435539
aF0.0002349337017093776
aF0.0005826355802392565
aF9.397348068375105e-06
aF0.0008739533703588847
aF2.8192044205125312e-05
aF0.005234322874084933
aF0.0011182844201366375
aF0.029930553597774707
aF0.00030071513818800337
aF7.517878454700084e-05
aF9.397348068375105e-06
aF0.010120943869639987
aa(lp11
F0.005034324942791762
aF0.009153318077803204
aF0.007780320366132723
aF0.09839816933638444
aF0.0004576659038901602
aF0.0009153318077803204
aF0.0004576659038901602
aF0.0004576659038901602
aF0.0004576659038901602
aF0.0004576659038901602
aF0.0004576659038901602
aF0.018764302059496567
aF0.0004576659038901602
aF0.0004576659038901602
aF0.007322654462242563
aF0.012356979405034324
aF0.0004576659038901602
aF0.022425629290617848
aF0.0004576659038901602
aF0.0004576659038901602
aF0.0004576659038901602
aF0.0004576659038901602
aF0.0013729977116704805
aF0.0004576659038901602
aF0.044851258581235696
aF0.0004576659038901602
aF0.0004576659038901602
aF0.0004576659038901602
aF0.0004576659038901602
aF0.0004576659038901602
aF0.033409610983981694
aF0.0004576659038901602
aF0.0004576659038901602
aF0.0004576659038901602
aF0.0004576659038901602
aF0.0004576659038901602
aF0.0004576659038901602
aF0.0004576659038901602
aF0.034324942791762014
aF0.0004576659038901602
aF0.0004576659038901602
aF0.0004576659038901602
aF0.0009153318077803204
aF0.0004576659038901602
aF0.0004576659038901602
aF0.022425629290617848
aF0.0004576659038901602
aF0.0004576659038901602
aF0.05995423340961099
aF0.0004576659038901602
aF0.0004576659038901602
aF0.031121281464530894
aF0.0004576659038901602
aF0.0004576659038901602
aF0.006407322654462242
aF0.0004576659038901602
aF0.0004576659038901602
aF0.0004576659038901602
aF0.0004576659038901602
aF0.041189931350114416
aF0.0004576659038901602
aF0.0004576659038901602
aF0.04759725400457666
aF0.0004576659038901602
aF0.0004576659038901602
aF0.0004576659038901602
aF0.031121281464530894
aF0.3391304347826087
aF0.0004576659038901602
aF0.0004576659038901602
aF0.0004576659038901602
aF0.0004576659038901602
aF0.0004576659038901602
aF0.036613272311212815
aF0.0004576659038901602
aF0.0004576659038901602
aF0.0009153318077803204
aF0.0004576659038901602
aF0.002288329519450801
aF0.0004576659038901602
aF0.0009153318077803204
aF0.0004576659038901602
aF0.0004576659038901602
aF0.0004576659038901602
aF0.033867276887871854
aF0.0004576659038901602
aF0.0004576659038901602
aF0.0004576659038901602
aF0.021510297482837528
aa(lp12
F0.07763782779269048
aF0.21081973983068347
aF0.005643884644504095
aF0.1745474568105169
aF0.16642576915135246
aF0.011356597150526533
aF0.012182531488746646
aF0.01755110468717737
aF0.011356597150526533
aF0.06366577190446693
aF0.0002753114460733705
aF6.882786151834262e-05
aF0.0014453850918851952
aF0.00034413930759171315
aF0.0037855323835088443
aF0.0007571064767017689
aF6.882786151834262e-05
aF0.03475807006676303
aF0.002546630876178677
aF0.00034413930759171315
aF0.007433409043981004
aF0.00034413930759171315
aF0.010186523504714709
aF0.0011700736458118246
aF0.0014453850918851952
aF0.00034413930759171315
aF6.882786151834262e-05
aF6.882786151834262e-05
aF0.00020648358455502787
aF6.882786151834262e-05
aF0.013008465826966756
aF6.882786151834262e-05
aF6.882786151834262e-05
aF6.882786151834262e-05
aF0.03117902126780921
aF6.882786151834262e-05
aF0.007708720490054374
aF0.0008259343382201115
aF0.0069516140133526055
aF6.882786151834262e-05
aF6.882786151834262e-05
aF0.007226925459425976
aF0.017069309656548973
aF6.882786151834262e-05
aF6.882786151834262e-05
aF0.001996007984031936
aF6.882786151834262e-05
aF6.882786151834262e-05
aF0.002408975153141992
aF6.882786151834262e-05
aF0.00020648358455502787
aF0.004611466721728956
aF6.882786151834262e-05
aF6.882786151834262e-05
aF0.00034413930759171315
aF6.882786151834262e-05
aF6.882786151834262e-05
aF6.882786151834262e-05
aF6.882786151834262e-05
aF0.013972055888223553
aF0.00020648358455502787
aF6.882786151834262e-05
aF0.034482758620689655
aF0.00034413930759171315
aF6.882786151834262e-05
aF6.882786151834262e-05
aF0.0028219423222520476
aF0.009085277720421227
aF6.882786151834262e-05
aF6.882786151834262e-05
aF6.882786151834262e-05
aF0.00013765572303668525
aF6.882786151834262e-05
aF6.882786151834262e-05
aF6.882786151834262e-05
aF0.0004817950306283984
aF0.00013765572303668525
aF6.882786151834262e-05
aF6.882786151834262e-05
aF6.882786151834262e-05
aF0.0002753114460733705
aF6.882786151834262e-05
aF0.005230917475394039
aF0.00020648358455502787
aF0.010393007089269737
aF0.00013765572303668525
aF6.882786151834262e-05
aF6.882786151834262e-05
aF0.00942941702801294
aa(lp13
F0.0539906103286385
aF0.07042253521126761
aF0.00029342723004694836
aF0.012030516431924883
aF0.011737089201877934
aF0.00029342723004694836
aF0.00029342723004694836
aF0.00029342723004694836
aF0.00029342723004694836
aF0.014964788732394365
aF0.0005868544600938967
aF0.0044014084507042256
aF0.00029342723004694836
aF0.00029342723004694836
aF0.0038145539906103286
aF0.009389671361502348
aF0.00029342723004694836
aF0.008215962441314555
aF0.0067488262910798125
aF0.00029342723004694836
aF0.00029342723004694836
aF0.00029342723004694836
aF0.00029342723004694836
aF0.00029342723004694836
aF0.0067488262910798125
aF0.00029342723004694836
aF0.00029342723004694836
aF0.00029342723004694836
aF0.00029342723004694836
aF0.00029342723004694836
aF0.01995305164319249
aF0.00029342723004694836
aF0.014084507042253521
aF0.00029342723004694836
aF0.09448356807511737
aF0.00029342723004694836
aF0.00029342723004694836
aF0.006161971830985915
aF0.05017605633802817
aF0.00029342723004694836
aF0.00029342723004694836
aF0.03051643192488263
aF0.061326291079812204
aF0.005575117370892019
aF0.0008802816901408451
aF0.014964788732394365
aF0.00029342723004694836
aF0.00029342723004694836
aF0.034624413145539906
aF0.00029342723004694836
aF0.00029342723004694836
aF0.009096244131455399
aF0.00029342723004694836
aF0.00029342723004694836
aF0.0011737089201877935
aF0.00029342723004694836
aF0.00029342723004694836
aF0.00029342723004694836
aF0.00029342723004694836
aF0.059565727699530516
aF0.0011737089201877935
aF0.00029342723004694836
aF0.04812206572769953
aF0.006455399061032864
aF0.00029342723004694836
aF0.00029342723004694836
aF0.023474178403755867
aF0.27024647887323944
aF0.00029342723004694836
aF0.00029342723004694836
aF0.0008802816901408451
aF0.0014671361502347417
aF0.00029342723004694836
aF0.0029342723004694834
aF0.00029342723004694836
aF0.00029342723004694836
aF0.0038145539906103286
aF0.00029342723004694836
aF0.00029342723004694836
aF0.00029342723004694836
aF0.0005868544600938967
aF0.0011737089201877935
aF0.00029342723004694836
aF0.00029342723004694836
aF0.014964788732394365
aF0.0008802816901408451
aF0.00029342723004694836
aF0.00029342723004694836
aF0.0038145539906103286
aa(lp14
F0.011641443538998836
aF0.0011641443538998836
aF0.0011641443538998836
aF0.0011641443538998836
aF0.0011641443538998836
aF0.0011641443538998836
aF0.0011641443538998836
aF0.0011641443538998836
aF0.0011641443538998836
aF0.6123399301513388
aF0.0011641443538998836
aF0.004656577415599534
aF0.0011641443538998836
aF0.0011641443538998836
aF0.002328288707799767
aF0.01629802095459837
aF0.0011641443538998836
aF0.0011641443538998836
aF0.0011641443538998836
aF0.0011641443538998836
aF0.0011641443538998836
aF0.0011641443538998836
aF0.0011641443538998836
aF0.0011641443538998836
aF0.0011641443538998836
aF0.0011641443538998836
aF0.0011641443538998836
aF0.0011641443538998836
aF0.0011641443538998836
aF0.0011641443538998836
aF0.015133876600698487
aF0.0011641443538998836
aF0.0011641443538998836
aF0.0011641443538998836
aF0.0011641443538998836
aF0.0011641443538998836
aF0.0011641443538998836
aF0.0011641443538998836
aF0.006984866123399301
aF0.0011641443538998836
aF0.0011641443538998836
aF0.0011641443538998836
aF0.0011641443538998836
aF0.0011641443538998836
aF0.0011641443538998836
aF0.023282887077997673
aF0.0011641443538998836
aF0.0011641443538998836
aF0.0034924330616996507
aF0.0034924330616996507
aF0.0011641443538998836
aF0.013969732246798603
aF0.010477299185098952
aF0.004656577415599534
aF0.0034924330616996507
aF0.0011641443538998836
aF0.0011641443538998836
aF0.0011641443538998836
aF0.0011641443538998836
aF0.002328288707799767
aF0.0011641443538998836
aF0.0011641443538998836
aF0.015133876600698487
aF0.0034924330616996507
aF0.002328288707799767
aF0.0011641443538998836
aF0.0011641443538998836
aF0.14551804423748546
aF0.002328288707799767
aF0.0011641443538998836
aF0.0011641443538998836
aF0.0011641443538998836
aF0.0011641443538998836
aF0.0011641443538998836
aF0.0011641443538998836
aF0.0011641443538998836
aF0.0011641443538998836
aF0.0011641443538998836
aF0.0011641443538998836
aF0.0011641443538998836
aF0.005820721769499418
aF0.0011641443538998836
aF0.0011641443538998836
aF0.0011641443538998836
aF0.009313154831199068
aF0.002328288707799767
aF0.0011641443538998836
aF0.0011641443538998836
aF0.0034924330616996507
aa(lp15
F0.12115432457085994
aF0.05929181524172817
aF0.0010780330043950576
aF0.11435442408159881
aF0.2064018575337922
aF0.037565303922381624
aF0.00663404925781574
aF0.0014926610830085414
aF0.010116925118169003
aF0.11642756447466622
aF8.292561572269674e-05
aF0.00016585123144539348
aF0.0004975536943361804
aF8.292561572269674e-05
aF8.292561572269674e-05
aF0.0020731403930674187
aF8.292561572269674e-05
aF0.022306990629405422
aF0.0028194709345716893
aF0.0004146280786134837
aF0.0002487768471680902
aF8.292561572269674e-05
aF0.0004146280786134837
aF8.292561572269674e-05
aF0.003234099013185173
aF8.292561572269674e-05
aF8.292561572269674e-05
aF8.292561572269674e-05
aF8.292561572269674e-05
aF8.292561572269674e-05
aF0.012770544821295297
aF8.292561572269674e-05
aF0.0002487768471680902
aF8.292561572269674e-05
aF0.10108632556596733
aF8.292561572269674e-05
aF0.0024877684716809022
aF0.016336346297371258
aF0.005804793100588772
aF8.292561572269674e-05
aF8.292561572269674e-05
aF0.0013268098515631479
aF0.011858363048345633
aF8.292561572269674e-05
aF8.292561572269674e-05
aF0.0007463305415042707
aF8.292561572269674e-05
aF8.292561572269674e-05
aF0.008043784725101585
aF8.292561572269674e-05
aF8.292561572269674e-05
aF0.0024877684716809022
aF0.0002487768471680902
aF8.292561572269674e-05
aF0.0004146280786134837
aF0.0004146280786134837
aF8.292561572269674e-05
aF8.292561572269674e-05
aF8.292561572269674e-05
aF0.009370594576664731
aF0.00016585123144539348
aF8.292561572269674e-05
aF0.023882577328136662
aF8.292561572269674e-05
aF8.292561572269674e-05
aF8.292561572269674e-05
aF0.012355916742681815
aF0.05506260883987064
aF8.292561572269674e-05
aF8.292561572269674e-05
aF8.292561572269674e-05
aF8.292561572269674e-05
aF8.292561572269674e-05
aF0.00033170246289078697
aF8.292561572269674e-05
aF8.292561572269674e-05
aF0.0005804793100588772
aF8.292561572269674e-05
aF0.0002487768471680902
aF8.292561572269674e-05
aF8.292561572269674e-05
aF8.292561572269674e-05
aF0.0005804793100588772
aF8.292561572269674e-05
aF0.003234099013185173
aF8.292561572269674e-05
aF8.292561572269674e-05
aF8.292561572269674e-05
aF0.019487519694833734
aa(lp16
F0.11204869276525108
aF0.12532853783372527
aF0.002858855535574307
aF0.10031355189745009
aF0.11995665606123485
aF0.009936828514778439
aF0.012542075898003413
aF0.005971319223497948
aF0.007931018582560982
aF0.11324756766726611
aF0.00020749757919490938
aF0.0005072163046986675
aF0.004887720754368977
aF2.3055286577212155e-05
aF0.0005763821644303039
aF6.916585973163646e-05
aF2.3055286577212155e-05
aF0.02190252224835155
aF0.005948263936920736
aF2.3055286577212155e-05
aF0.006709088393968737
aF0.00011527643288606078
aF0.008207682021487528
aF0.00043805044496703094
aF0.0029049661087287315
aF0.0001613870060404851
aF2.3055286577212155e-05
aF4.611057315442431e-05
aF6.916585973163646e-05
aF2.3055286577212155e-05
aF0.004034675151012127
aF2.3055286577212155e-05
aF2.3055286577212155e-05
aF2.3055286577212155e-05
aF0.06621478304975331
aF2.3055286577212155e-05
aF0.0033660718402729745
aF0.0030663531147692167
aF0.0023055286577212154
aF2.3055286577212155e-05
aF2.3055286577212155e-05
aF0.000899156176511274
aF0.007769631576520496
aF2.3055286577212155e-05
aF2.3055286577212155e-05
aF0.0010374878959745469
aF2.3055286577212155e-05
aF2.3055286577212155e-05
aF0.002951076681883156
aF4.611057315442431e-05
aF0.0005072163046986675
aF0.0014063724812099414
aF2.3055286577212155e-05
aF2.3055286577212155e-05
aF0.0030663531147692167
aF0.00018444229261769724
aF2.3055286577212155e-05
aF2.3055286577212155e-05
aF2.3055286577212155e-05
aF0.0035044035597362475
aF2.3055286577212155e-05
aF2.3055286577212155e-05
aF0.08343708212293079
aF0.0001613870060404851
aF2.3055286577212155e-05
aF2.3055286577212155e-05
aF0.001314151334901093
aF0.047701387928251945
aF2.3055286577212155e-05
aF2.3055286577212155e-05
aF2.3055286577212155e-05
aF0.0008069350302024255
aF0.010121270807396136
aF0.0011758196154378199
aF2.3055286577212155e-05
aF0.00023055286577212155
aF4.611057315442431e-05
aF2.3055286577212155e-05
aF0.001014432609397335
aF2.3055286577212155e-05
aF2.3055286577212155e-05
aF2.3055286577212155e-05
aF2.3055286577212155e-05
aF9.222114630884862e-05
aF0.05302715912758796
aF4.611057315442431e-05
aF2.3055286577212155e-05
aF2.3055286577212155e-05
aF0.03677318209065339
aa(lp17
F0.0013458950201884253
aF0.0013458950201884253
aF0.0013458950201884253
aF0.014804845222072678
aF0.0013458950201884253
aF0.004037685060565276
aF0.0013458950201884253
aF0.0013458950201884253
aF0.0013458950201884253
aF0.04306864064602961
aF0.0013458950201884253
aF0.0013458950201884253
aF0.0013458950201884253
aF0.0013458950201884253
aF0.0013458950201884253
aF0.0013458950201884253
aF0.0013458950201884253
aF0.0013458950201884253
aF0.0026917900403768506
aF0.0013458950201884253
aF0.0013458950201884253
aF0.0013458950201884253
aF0.0013458950201884253
aF0.0013458950201884253
aF0.012113055181695828
aF0.0013458950201884253
aF0.0013458950201884253
aF0.0013458950201884253
aF0.0013458950201884253
aF0.0013458950201884253
aF0.010767160161507403
aF0.0013458950201884253
aF0.0013458950201884253
aF0.0013458950201884253
aF0.0013458950201884253
aF0.0013458950201884253
aF0.0013458950201884253
aF0.0013458950201884253
aF0.0013458950201884253
aF0.0013458950201884253
aF0.0013458950201884253
aF0.0013458950201884253
aF0.0013458950201884253
aF0.0013458950201884253
aF0.0013458950201884253
aF0.006729475100942127
aF0.0013458950201884253
aF0.0013458950201884253
aF0.02826379542395693
aF0.0013458950201884253
aF0.0013458950201884253
aF0.004037685060565276
aF0.0013458950201884253
aF0.0013458950201884253
aF0.0013458950201884253
aF0.0013458950201884253
aF0.0013458950201884253
aF0.0013458950201884253
aF0.0013458950201884253
aF0.024226110363391656
aF0.0013458950201884253
aF0.0013458950201884253
aF0.0740242261103634
aF0.0013458950201884253
aF0.0013458950201884253
aF0.0013458950201884253
aF0.039030955585464336
aF0.6016150740242261
aF0.0013458950201884253
aF0.0013458950201884253
aF0.0013458950201884253
aF0.0013458950201884253
aF0.0013458950201884253
aF0.005383580080753701
aF0.0013458950201884253
aF0.0013458950201884253
aF0.006729475100942127
aF0.0013458950201884253
aF0.0026917900403768506
aF0.0013458950201884253
aF0.0013458950201884253
aF0.0013458950201884253
aF0.0013458950201884253
aF0.0013458950201884253
aF0.012113055181695828
aF0.0013458950201884253
aF0.0013458950201884253
aF0.0013458950201884253
aF0.012113055181695828
aa(lp18
F0.0035753575357535755
aF0.025737990465713238
aF4.583791712504584e-05
aF0.03045929592959296
aF0.01553905390539054
aF0.0007563256325632563
aF0.0011688668866886688
aF0.001398056472313898
aF0.0002521085441877521
aF0.04769435276861019
aF0.007173634030069673
aF0.0063256325632563256
aF0.0007104877154382105
aF2.291895856252292e-05
aF0.007563256325632563
aF0.03144481114778144
aF0.00043546021268793544
aF0.000275027502750275
aF0.0024523285661899523
aF2.291895856252292e-05
aF0.0005042170883755042
aF2.291895856252292e-05
aF4.583791712504584e-05
aF2.291895856252292e-05
aF0.0011688668866886688
aF6.875687568756875e-05
aF2.291895856252292e-05
aF4.583791712504584e-05
aF2.291895856252292e-05
aF2.291895856252292e-05
aF0.11005683901723505
aF0.008204987165383206
aF0.0023835716905023837
aF0.0001375137513751375
aF0.0010542720938760543
aF2.291895856252292e-05
aF2.291895856252292e-05
aF0.00016043270993766043
aF0.0278006967363403
aF0.00682984965163183
aF0.0016272460579391272
aF0.018495599559955996
aF0.0013522185551888522
aF0.005523469013568023
aF2.291895856252292e-05
aF0.015607810781078108
aF0.0009625962596259626
aF0.0018793546021268794
aF0.0026815181518151814
aF0.011321965529886322
aF0.0001145947928126146
aF0.030986431976530986
aF0.0001145947928126146
aF0.04505867253392006
aF0.008021635496883022
aF0.001696002933626696
aF0.0001375137513751375
aF0.0015814081408140814
aF0.0012147048038137146
aF0.09366978364503117
aF0.002566923359002567
aF0.012422075540887423
aF0.10774202420242024
aF0.004469196919691969
aF0.026196369636963698
aF0.0037587092042537587
aF0.0005042170883755042
aF0.10503758709204254
aF0.012078291162449578
aF0.0033232489915658234
aF0.0015584891822515584
aF0.005867253392005867
aF0.007173634030069673
aF0.021108360836083608
aF2.291895856252292e-05
aF2.291895856252292e-05
aF0.003667033370003667
aF0.00020627062706270627
aF0.0012834616795012834
aF0.0023377337733773377
aF0.005225522552255226
aF0.00020627062706270627
aF2.291895856252292e-05
aF2.291895856252292e-05
aF0.04343142647598093
aF0.007356985698569857
aF0.022575174184085074
aF0.00020627062706270627
aF0.01585991932526586
aa(lp19
F8.177283506419168e-05
aF0.0023714122168615585
aF8.177283506419168e-05
aF0.0063782811350069505
aF0.0010630468558344918
aF0.000245318505192575
aF8.177283506419168e-05
aF8.177283506419168e-05
aF0.00049063701038515
aF0.03745195845939979
aF0.000245318505192575
aF0.02093384577643307
aF0.000245318505192575
aF8.177283506419168e-05
aF0.030010630468558345
aF0.016926976858287677
aF0.0023714122168615585
aF8.177283506419168e-05
aF8.177283506419168e-05
aF8.177283506419168e-05
aF8.177283506419168e-05
aF8.177283506419168e-05
aF8.177283506419168e-05
aF8.177283506419168e-05
aF0.0010630468558344918
aF8.177283506419168e-05
aF8.177283506419168e-05
aF8.177283506419168e-05
aF8.177283506419168e-05
aF8.177283506419168e-05
aF0.23697767601602748
aF8.177283506419168e-05
aF0.00016354567012838336
aF8.177283506419168e-05
aF0.00016354567012838336
aF8.177283506419168e-05
aF8.177283506419168e-05
aF8.177283506419168e-05
aF0.010385150053152343
aF8.177283506419168e-05
aF8.177283506419168e-05
aF0.019380161910213425
aF0.0003270913402567667
aF0.0004088641753209584
aF8.177283506419168e-05
aF0.0067053724752637175
aF0.0005724098454493417
aF0.0004088641753209584
aF0.0012265925259628751
aF0.0022078665467331754
aF8.177283506419168e-05
aF0.0033526862376318588
aF0.00049063701038515
aF0.00049063701038515
aF0.005560552784365034
aF0.00016354567012838336
aF0.0003270913402567667
aF0.00016354567012838336
aF8.177283506419168e-05
aF0.0026167307220541338
aF8.177283506419168e-05
aF8.177283506419168e-05
aF0.021833346962139177
aF0.0017990023714122168
aF0.0015536838662196417
aF0.0017990023714122168
aF0.00049063701038515
aF0.3409927222176793
aF0.005315234279172459
aF8.177283506419168e-05
aF0.00049063701038515
aF0.04988142938915692
aF8.177283506419168e-05
aF0.0009812740207703
aF8.177283506419168e-05
aF8.177283506419168e-05
aF0.0034344590726960505
aF0.0004088641753209584
aF0.000245318505192575
aF8.177283506419168e-05
aF0.0029438220623109004
aF0.00016354567012838336
aF8.177283506419168e-05
aF8.177283506419168e-05
aF0.13418922234033853
aF0.0022078665467331754
aF0.005969416959685992
aF0.000245318505192575
aF0.01022160438302396
aa(lp20
F0.0010504201680672268
aF0.0010504201680672268
aF0.0010504201680672268
aF0.0010504201680672268
aF0.0010504201680672268
aF0.0010504201680672268
aF0.0010504201680672268
aF0.0010504201680672268
aF0.0010504201680672268
aF0.0010504201680672268
aF0.0010504201680672268
aF0.0010504201680672268
aF0.0010504201680672268
aF0.0010504201680672268
aF0.0010504201680672268
aF0.0031512605042016808
aF0.0010504201680672268
aF0.0010504201680672268
aF0.0010504201680672268
aF0.0010504201680672268
aF0.0010504201680672268
aF0.0010504201680672268
aF0.0010504201680672268
aF0.0010504201680672268
aF0.0010504201680672268
aF0.0010504201680672268
aF0.0010504201680672268
aF0.0010504201680672268
aF0.0010504201680672268
aF0.0010504201680672268
aF0.7090336134453782
aF0.004201680672268907
aF0.0010504201680672268
aF0.0010504201680672268
aF0.0010504201680672268
aF0.0010504201680672268
aF0.0010504201680672268
aF0.0010504201680672268
aF0.0010504201680672268
aF0.0010504201680672268
aF0.0010504201680672268
aF0.0010504201680672268
aF0.0010504201680672268
aF0.0010504201680672268
aF0.0010504201680672268
aF0.0010504201680672268
aF0.0010504201680672268
aF0.0010504201680672268
aF0.0010504201680672268
aF0.0010504201680672268
aF0.0010504201680672268
aF0.0031512605042016808
aF0.0010504201680672268
aF0.0010504201680672268
aF0.0010504201680672268
aF0.0010504201680672268
aF0.0010504201680672268
aF0.0010504201680672268
aF0.0010504201680672268
aF0.0010504201680672268
aF0.0010504201680672268
aF0.0010504201680672268
aF0.005252100840336135
aF0.0010504201680672268
aF0.0010504201680672268
aF0.0010504201680672268
aF0.0010504201680672268
aF0.0010504201680672268
aF0.0010504201680672268
aF0.0010504201680672268
aF0.0010504201680672268
aF0.0010504201680672268
aF0.0010504201680672268
aF0.0010504201680672268
aF0.0010504201680672268
aF0.0010504201680672268
aF0.0021008403361344537
aF0.0010504201680672268
aF0.0010504201680672268
aF0.0010504201680672268
aF0.0010504201680672268
aF0.0010504201680672268
aF0.0010504201680672268
aF0.0010504201680672268
aF0.005252100840336135
aF0.0010504201680672268
aF0.0010504201680672268
aF0.0010504201680672268
aF0.18277310924369747
aa(lp21
F0.0009778357235984355
aF0.0003259452411994785
aF0.00016297262059973924
aF0.00016297262059973924
aF0.00016297262059973924
aF0.00016297262059973924
aF0.00016297262059973924
aF0.00016297262059973924
aF0.00016297262059973924
aF0.012874837027379401
aF0.0003259452411994785
aF0.003585397653194263
aF0.00016297262059973924
aF0.00016297262059973924
aF0.018904823989569754
aF0.003259452411994785
aF0.00016297262059973924
aF0.00016297262059973924
aF0.00016297262059973924
aF0.00016297262059973924
aF0.00016297262059973924
aF0.00016297262059973924
aF0.00016297262059973924
aF0.00016297262059973924
aF0.0011408083441981746
aF0.00016297262059973924
aF0.00016297262059973924
aF0.00016297262059973924
aF0.00016297262059973924
aF0.00016297262059973924
aF0.38510430247718386
aF0.00211864406779661
aF0.026401564537157758
aF0.009452411994784877
aF0.0009778357235984355
aF0.00016297262059973924
aF0.00016297262059973924
aF0.00016297262059973924
aF0.004074315514993481
aF0.00016297262059973924
aF0.00016297262059973924
aF0.04889178617992177
aF0.001303780964797914
aF0.0037483702737940027
aF0.00016297262059973924
aF0.014178617992177314
aF0.0004889178617992178
aF0.00016297262059973924
aF0.0030964797913950455
aF0.0003259452411994785
aF0.00016297262059973924
aF0.006844850065189048
aF0.000651890482398957
aF0.0004889178617992178
aF0.015482398956975228
aF0.0003259452411994785
aF0.0004889178617992178
aF0.00016297262059973924
aF0.0004889178617992178
aF0.0477509778357236
aF0.0004889178617992178
aF0.00016297262059973924
aF0.235006518904824
aF0.0029335071707953064
aF0.018252933507170794
aF0.00211864406779661
aF0.0003259452411994785
aF0.0431877444589309
aF0.006029986962190352
aF0.0003259452411994785
aF0.00016297262059973924
aF0.01075619295958279
aF0.00016297262059973924
aF0.0014667535853976532
aF0.00016297262059973924
aF0.00016297262059973924
aF0.0022816166883963492
aF0.0008148631029986962
aF0.0003259452411994785
aF0.00016297262059973924
aF0.0027705345501955673
aF0.00211864406779661
aF0.00016297262059973924
aF0.00016297262059973924
aF0.042535853976531944
aF0.001955671447196871
aF0.0008148631029986962
aF0.00016297262059973924
aF0.0048891786179921775
aa(lp22
F0.005263157894736842
aF0.005263157894736842
aF0.005263157894736842
aF0.005263157894736842
aF0.005263157894736842
aF0.005263157894736842
aF0.005263157894736842
aF0.005263157894736842
aF0.005263157894736842
aF0.2789473684210526
aF0.005263157894736842
aF0.005263157894736842
aF0.005263157894736842
aF0.005263157894736842
aF0.005263157894736842
aF0.18947368421052632
aF0.005263157894736842
aF0.005263157894736842
aF0.005263157894736842
aF0.005263157894736842
aF0.005263157894736842
aF0.005263157894736842
aF0.005263157894736842
aF0.005263157894736842
aF0.005263157894736842
aF0.005263157894736842
aF0.005263157894736842
aF0.005263157894736842
aF0.005263157894736842
aF0.005263157894736842
aF0.010526315789473684
aF0.005263157894736842
aF0.010526315789473684
aF0.005263157894736842
aF0.005263157894736842
aF0.005263157894736842
aF0.005263157894736842
aF0.005263157894736842
aF0.005263157894736842
aF0.005263157894736842
aF0.005263157894736842
aF0.005263157894736842
aF0.005263157894736842
aF0.005263157894736842
aF0.005263157894736842
aF0.005263157894736842
aF0.005263157894736842
aF0.005263157894736842
aF0.005263157894736842
aF0.005263157894736842
aF0.005263157894736842
aF0.02631578947368421
aF0.005263157894736842
aF0.005263157894736842
aF0.005263157894736842
aF0.005263157894736842
aF0.005263157894736842
aF0.005263157894736842
aF0.005263157894736842
aF0.005263157894736842
aF0.005263157894736842
aF0.005263157894736842
aF0.005263157894736842
aF0.005263157894736842
aF0.005263157894736842
aF0.005263157894736842
aF0.005263157894736842
aF0.021052631578947368
aF0.005263157894736842
aF0.005263157894736842
aF0.005263157894736842
aF0.005263157894736842
aF0.005263157894736842
aF0.005263157894736842
aF0.005263157894736842
aF0.005263157894736842
aF0.005263157894736842
aF0.015789473684210527
aF0.005263157894736842
aF0.005263157894736842
aF0.005263157894736842
aF0.005263157894736842
aF0.005263157894736842
aF0.005263157894736842
aF0.005263157894736842
aF0.005263157894736842
aF0.005263157894736842
aF0.005263157894736842
aF0.021052631578947368
aa(lp23
F0.0019392372333548805
aF0.034367593191122606
aF0.00010773540185304891
aF0.0691661279896574
aF0.05052790346907994
aF0.00808015513897867
aF0.0007541478129713424
aF0.00010773540185304891
aF0.0030165912518853697
aF0.008511096746390863
aF0.00010773540185304891
aF0.0029088558500323207
aF0.0006464124111182935
aF0.00010773540185304891
aF0.017345399698340876
aF0.015082956259426848
aF0.00010773540185304891
aF0.002370178840767076
aF0.0014005602240896359
aF0.00010773540185304891
aF0.00021547080370609782
aF0.00010773540185304891
aF0.00010773540185304891
aF0.00010773540185304891
aF0.015513897866839044
aF0.00010773540185304891
aF0.00010773540185304891
aF0.00010773540185304891
aF0.00010773540185304891
aF0.00010773540185304891
aF0.20652876535229475
aF0.004524886877828055
aF0.001292824822236587
aF0.00010773540185304891
aF0.12023270846800259
aF0.00010773540185304891
aF0.00010773540185304891
aF0.00010773540185304891
aF0.03296703296703297
aF0.00010773540185304891
aF0.00010773540185304891
aF0.0592544710191769
aF0.045033397974574445
aF0.00010773540185304891
aF0.0003232062055591467
aF0.0056022408963585435
aF0.00010773540185304891
aF0.00010773540185304891
aF0.013466925231631115
aF0.0009696186166774402
aF0.00010773540185304891
aF0.004740357681534152
aF0.00010773540185304891
aF0.00010773540185304891
aF0.0056022408963585435
aF0.00021547080370609782
aF0.00010773540185304891
aF0.00010773540185304891
aF0.00010773540185304891
aF0.01906916612798966
aF0.00010773540185304891
aF0.00010773540185304891
aF0.08209437621202327
aF0.0008618832148243913
aF0.001185089420383538
aF0.00010773540185304891
aF0.0022624434389140274
aF0.1180780004309416
aF0.00010773540185304891
aF0.00010773540185304891
aF0.00010773540185304891
aF0.004309416074121957
aF0.00010773540185304891
aF0.007541478129713424
aF0.00010773540185304891
aF0.00010773540185304891
aF0.00010773540185304891
aF0.00010773540185304891
aF0.001185089420383538
aF0.00010773540185304891
aF0.004848093083387201
aF0.00021547080370609782
aF0.00010773540185304891
aF0.00010773540185304891
aF0.01185089420383538
aF0.00010773540185304891
aF0.00010773540185304891
aF0.00010773540185304891
aF0.00894203835380306
aa(lp24
F0.001075268817204301
aF0.0005376344086021505
aF0.0005376344086021505
aF0.001075268817204301
aF0.0005376344086021505
aF0.0005376344086021505
aF0.0005376344086021505
aF0.0005376344086021505
aF0.0005376344086021505
aF0.10376344086021505
aF0.0005376344086021505
aF0.07526881720430108
aF0.0005376344086021505
aF0.0005376344086021505
aF0.032795698924731186
aF0.01989247311827957
aF0.0005376344086021505
aF0.0005376344086021505
aF0.0005376344086021505
aF0.0005376344086021505
aF0.0005376344086021505
aF0.0005376344086021505
aF0.0005376344086021505
aF0.0005376344086021505
aF0.0005376344086021505
aF0.0005376344086021505
aF0.0005376344086021505
aF0.0005376344086021505
aF0.0005376344086021505
aF0.0005376344086021505
aF0.06989247311827956
aF0.0032258064516129032
aF0.002150537634408602
aF0.0005376344086021505
aF0.0005376344086021505
aF0.0005376344086021505
aF0.0005376344086021505
aF0.0005376344086021505
aF0.0005376344086021505
aF0.0005376344086021505
aF0.0005376344086021505
aF0.1295698924731183
aF0.006989247311827957
aF0.001075268817204301
aF0.0005376344086021505
aF0.004301075268817204
aF0.0005376344086021505
aF0.0005376344086021505
aF0.00967741935483871
aF0.001075268817204301
aF0.0005376344086021505
aF0.011827956989247311
aF0.0005376344086021505
aF0.001075268817204301
aF0.07634408602150537
aF0.002688172043010753
aF0.0005376344086021505
aF0.0005376344086021505
aF0.007526881720430108
aF0.03225806451612903
aF0.0005376344086021505
aF0.0005376344086021505
aF0.07043010752688172
aF0.002150537634408602
aF0.006989247311827957
aF0.0016129032258064516
aF0.0005376344086021505
aF0.05967741935483871
aF0.014516129032258065
aF0.0005376344086021505
aF0.0005376344086021505
aF0.0016129032258064516
aF0.0005376344086021505
aF0.0005376344086021505
aF0.0005376344086021505
aF0.0005376344086021505
aF0.0016129032258064516
aF0.003763440860215054
aF0.0005376344086021505
aF0.0005376344086021505
aF0.0005376344086021505
aF0.0005376344086021505
aF0.0005376344086021505
aF0.0005376344086021505
aF0.2075268817204301
aF0.003763440860215054
aF0.0005376344086021505
aF0.0005376344086021505
aF0.002688172043010753
aa(lp25
F0.18040731198625937
aF0.23395902343270764
aF0.016132989817200342
aF0.07232241442767759
aF0.12213225371120108
aF0.08643111274690223
aF0.07900871058765796
aF0.005520794994479205
aF0.00245368666421298
aF0.001104158998895841
aF6.13421666053245e-05
aF6.13421666053245e-05
aF0.009630720157035947
aF0.000613421666053245
aF6.13421666053245e-05
aF0.0001840264998159735
aF6.13421666053245e-05
aF0.04441172862225494
aF0.0548398969451601
aF6.13421666053245e-05
aF0.005459452827873881
aF6.13421666053245e-05
aF0.01582627898417372
aF0.0007974481658692185
aF6.13421666053245e-05
aF0.00122684333210649
aF6.13421666053245e-05
aF0.0001840264998159735
aF0.000736105999263894
aF6.13421666053245e-05
aF0.000122684333210649
aF6.13421666053245e-05
aF6.13421666053245e-05
aF6.13421666053245e-05
aF0.015212857318120476
aF6.13421666053245e-05
aF0.0043552938289780395
aF0.0012881854987118145
aF6.13421666053245e-05
aF6.13421666053245e-05
aF6.13421666053245e-05
aF6.13421666053245e-05
aF6.13421666053245e-05
aF6.13421666053245e-05
aF6.13421666053245e-05
aF6.13421666053245e-05
aF6.13421666053245e-05
aF6.13421666053245e-05
aF6.13421666053245e-05
aF6.13421666053245e-05
aF0.002331002331002331
aF6.13421666053245e-05
aF6.13421666053245e-05
aF6.13421666053245e-05
aF0.000122684333210649
aF6.13421666053245e-05
aF6.13421666053245e-05
aF6.13421666053245e-05
aF6.13421666053245e-05
aF0.000122684333210649
aF6.13421666053245e-05
aF6.13421666053245e-05
aF0.000368052999631947
aF6.13421666053245e-05
aF6.13421666053245e-05
aF6.13421666053245e-05
aF0.000490737332842596
aF6.13421666053245e-05
aF6.13421666053245e-05
aF6.13421666053245e-05
aF6.13421666053245e-05
aF6.13421666053245e-05
aF6.13421666053245e-05
aF6.13421666053245e-05
aF6.13421666053245e-05
aF0.015703594650963073
aF6.13421666053245e-05
aF6.13421666053245e-05
aF6.13421666053245e-05
aF6.13421666053245e-05
aF6.13421666053245e-05
aF6.13421666053245e-05
aF6.13421666053245e-05
aF0.000245368666421298
aF6.13421666053245e-05
aF6.13421666053245e-05
aF6.13421666053245e-05
aF6.13421666053245e-05
aF0.022819285977180713
aa(lp26
F0.024096385542168676
aF0.03614457831325301
aF0.004016064257028112
aF0.008032128514056224
aF0.008032128514056224
aF0.004016064257028112
aF0.004016064257028112
aF0.004016064257028112
aF0.004016064257028112
aF0.01606425702811245
aF0.004016064257028112
aF0.008032128514056224
aF0.004016064257028112
aF0.004016064257028112
aF0.004016064257028112
aF0.004016064257028112
aF0.004016064257028112
aF0.004016064257028112
aF0.004016064257028112
aF0.004016064257028112
aF0.004016064257028112
aF0.004016064257028112
aF0.004016064257028112
aF0.004016064257028112
aF0.012048192771084338
aF0.004016064257028112
aF0.004016064257028112
aF0.004016064257028112
aF0.004016064257028112
aF0.004016064257028112
aF0.060240963855421686
aF0.004016064257028112
aF0.04417670682730924
aF0.004016064257028112
aF0.08433734939759036
aF0.004016064257028112
aF0.004016064257028112
aF0.0321285140562249
aF0.028112449799196786
aF0.004016064257028112
aF0.004016064257028112
aF0.04417670682730924
aF0.0321285140562249
aF0.008032128514056224
aF0.004016064257028112
aF0.008032128514056224
aF0.004016064257028112
aF0.004016064257028112
aF0.0321285140562249
aF0.004016064257028112
aF0.004016064257028112
aF0.008032128514056224
aF0.004016064257028112
aF0.004016064257028112
aF0.004016064257028112
aF0.004016064257028112
aF0.004016064257028112
aF0.004016064257028112
aF0.004016064257028112
aF0.05622489959839357
aF0.004016064257028112
aF0.004016064257028112
aF0.05622489959839357
aF0.004016064257028112
aF0.008032128514056224
aF0.004016064257028112
aF0.008032128514056224
aF0.06827309236947791
aF0.004016064257028112
aF0.004016064257028112
aF0.004016064257028112
aF0.008032128514056224
aF0.004016064257028112
aF0.004016064257028112
aF0.004016064257028112
aF0.004016064257028112
aF0.008032128514056224
aF0.004016064257028112
aF0.004016064257028112
aF0.004016064257028112
aF0.004016064257028112
aF0.004016064257028112
aF0.004016064257028112
aF0.004016064257028112
aF0.03614457831325301
aF0.004016064257028112
aF0.004016064257028112
aF0.004016064257028112
aF0.008032128514056224
aa(lp27
F0.011111111111111112
aF0.011111111111111112
aF0.011111111111111112
aF0.011111111111111112
aF0.011111111111111112
aF0.011111111111111112
aF0.011111111111111112
aF0.011111111111111112
aF0.011111111111111112
aF0.011111111111111112
aF0.011111111111111112
aF0.011111111111111112
aF0.011111111111111112
aF0.011111111111111112
aF0.011111111111111112
aF0.011111111111111112
aF0.011111111111111112
aF0.011111111111111112
aF0.011111111111111112
aF0.011111111111111112
aF0.011111111111111112
aF0.011111111111111112
aF0.011111111111111112
aF0.011111111111111112
aF0.011111111111111112
aF0.011111111111111112
aF0.011111111111111112
aF0.011111111111111112
aF0.011111111111111112
aF0.011111111111111112
aF0.011111111111111112
aF0.011111111111111112
aF0.011111111111111112
aF0.011111111111111112
aF0.011111111111111112
aF0.011111111111111112
aF0.011111111111111112
aF0.011111111111111112
aF0.011111111111111112
aF0.011111111111111112
aF0.011111111111111112
aF0.011111111111111112
aF0.011111111111111112
aF0.011111111111111112
aF0.011111111111111112
aF0.011111111111111112
aF0.011111111111111112
aF0.011111111111111112
aF0.011111111111111112
aF0.011111111111111112
aF0.011111111111111112
aF0.011111111111111112
aF0.011111111111111112
aF0.011111111111111112
aF0.011111111111111112
aF0.011111111111111112
aF0.011111111111111112
aF0.011111111111111112
aF0.011111111111111112
aF0.011111111111111112
aF0.011111111111111112
aF0.011111111111111112
aF0.011111111111111112
aF0.011111111111111112
aF0.011111111111111112
aF0.011111111111111112
aF0.011111111111111112
aF0.022222222222222223
aF0.011111111111111112
aF0.011111111111111112
aF0.011111111111111112
aF0.011111111111111112
aF0.011111111111111112
aF0.011111111111111112
aF0.011111111111111112
aF0.011111111111111112
aF0.011111111111111112
aF0.011111111111111112
aF0.011111111111111112
aF0.011111111111111112
aF0.011111111111111112
aF0.011111111111111112
aF0.011111111111111112
aF0.011111111111111112
aF0.011111111111111112
aF0.011111111111111112
aF0.011111111111111112
aF0.011111111111111112
aF0.011111111111111112
aa(lp28
F0.01
aF0.01
aF0.01
aF0.01
aF0.01
aF0.01
aF0.01
aF0.01
aF0.01
aF0.01
aF0.01
aF0.01
aF0.01
aF0.01
aF0.01
aF0.01
aF0.01
aF0.01
aF0.01
aF0.01
aF0.01
aF0.01
aF0.01
aF0.01
aF0.01
aF0.01
aF0.01
aF0.01
aF0.01
aF0.01
aF0.01
aF0.01
aF0.01
aF0.01
aF0.01
aF0.01
aF0.02
aF0.01
aF0.01
aF0.01
aF0.01
aF0.01
aF0.01
aF0.01
aF0.01
aF0.01
aF0.01
aF0.01
aF0.01
aF0.01
aF0.01
aF0.01
aF0.01
aF0.01
aF0.01
aF0.01
aF0.01
aF0.01
aF0.01
aF0.01
aF0.01
aF0.01
aF0.01
aF0.01
aF0.01
aF0.01
aF0.01
aF0.09
aF0.01
aF0.01
aF0.01
aF0.01
aF0.01
aF0.01
aF0.01
aF0.01
aF0.01
aF0.01
aF0.01
aF0.01
aF0.01
aF0.01
aF0.01
aF0.01
aF0.01
aF0.01
aF0.01
aF0.01
aF0.03
aa(lp29
F0.00437636761487965
aF0.002188183807439825
aF0.002188183807439825
aF0.002188183807439825
aF0.002188183807439825
aF0.002188183807439825
aF0.002188183807439825
aF0.002188183807439825
aF0.002188183807439825
aF0.024070021881838075
aF0.002188183807439825
aF0.002188183807439825
aF0.002188183807439825
aF0.002188183807439825
aF0.002188183807439825
aF0.00437636761487965
aF0.002188183807439825
aF0.002188183807439825
aF0.002188183807439825
aF0.002188183807439825
aF0.002188183807439825
aF0.002188183807439825
aF0.002188183807439825
aF0.002188183807439825
aF0.002188183807439825
aF0.002188183807439825
aF0.002188183807439825
aF0.002188183807439825
aF0.002188183807439825
aF0.002188183807439825
aF0.1838074398249453
aF0.002188183807439825
aF0.010940919037199124
aF0.08315098468271334
aF0.0087527352297593
aF0.002188183807439825
aF0.002188183807439825
aF0.002188183807439825
aF0.002188183807439825
aF0.002188183807439825
aF0.002188183807439825
aF0.0087527352297593
aF0.002188183807439825
aF0.002188183807439825
aF0.002188183807439825
aF0.07439824945295405
aF0.006564551422319475
aF0.002188183807439825
aF0.002188183807439825
aF0.002188183807439825
aF0.002188183807439825
aF0.002188183807439825
aF0.002188183807439825
aF0.002188183807439825
aF0.015317286652078774
aF0.002188183807439825
aF0.002188183807439825
aF0.002188183807439825
aF0.002188183807439825
aF0.006564551422319475
aF0.002188183807439825
aF0.002188183807439825
aF0.06783369803063458
aF0.002188183807439825
aF0.05689277899343545
aF0.002188183807439825
aF0.002188183807439825
aF0.04157549234135667
aF0.00437636761487965
aF0.002188183807439825
aF0.002188183807439825
aF0.002188183807439825
aF0.002188183807439825
aF0.01312910284463895
aF0.002188183807439825
aF0.002188183807439825
aF0.002188183807439825
aF0.002188183807439825
aF0.0087527352297593
aF0.002188183807439825
aF0.002188183807439825
aF0.002188183807439825
aF0.002188183807439825
aF0.002188183807439825
aF0.015317286652078774
aF0.015317286652078774
aF0.002188183807439825
aF0.002188183807439825
aF0.19693654266958424
aa(lp30
F0.011235955056179775
aF0.011235955056179775
aF0.011235955056179775
aF0.011235955056179775
aF0.011235955056179775
aF0.011235955056179775
aF0.011235955056179775
aF0.011235955056179775
aF0.011235955056179775
aF0.011235955056179775
aF0.011235955056179775
aF0.011235955056179775
aF0.011235955056179775
aF0.011235955056179775
aF0.011235955056179775
aF0.011235955056179775
aF0.011235955056179775
aF0.011235955056179775
aF0.011235955056179775
aF0.011235955056179775
aF0.011235955056179775
aF0.011235955056179775
aF0.011235955056179775
aF0.011235955056179775
aF0.011235955056179775
aF0.011235955056179775
aF0.011235955056179775
aF0.011235955056179775
aF0.011235955056179775
aF0.011235955056179775
aF0.011235955056179775
aF0.011235955056179775
aF0.011235955056179775
aF0.011235955056179775
aF0.011235955056179775
aF0.011235955056179775
aF0.011235955056179775
aF0.011235955056179775
aF0.011235955056179775
aF0.011235955056179775
aF0.011235955056179775
aF0.011235955056179775
aF0.011235955056179775
aF0.011235955056179775
aF0.011235955056179775
aF0.011235955056179775
aF0.011235955056179775
aF0.011235955056179775
aF0.011235955056179775
aF0.011235955056179775
aF0.011235955056179775
aF0.011235955056179775
aF0.011235955056179775
aF0.011235955056179775
aF0.011235955056179775
aF0.011235955056179775
aF0.011235955056179775
aF0.011235955056179775
aF0.011235955056179775
aF0.011235955056179775
aF0.011235955056179775
aF0.011235955056179775
aF0.011235955056179775
aF0.011235955056179775
aF0.011235955056179775
aF0.011235955056179775
aF0.011235955056179775
aF0.011235955056179775
aF0.011235955056179775
aF0.011235955056179775
aF0.011235955056179775
aF0.011235955056179775
aF0.011235955056179775
aF0.011235955056179775
aF0.011235955056179775
aF0.011235955056179775
aF0.011235955056179775
aF0.011235955056179775
aF0.011235955056179775
aF0.011235955056179775
aF0.011235955056179775
aF0.011235955056179775
aF0.011235955056179775
aF0.011235955056179775
aF0.011235955056179775
aF0.011235955056179775
aF0.011235955056179775
aF0.011235955056179775
aF0.011235955056179775
aa(lp31
F0.053355038651716695
aF0.08189985375026115
aF0.0022546834737795112
aF0.09420050142767603
aF0.12765512918726932
aF0.00692074657009541
aF0.001471202729995125
aF0.001619193537154398
aF0.0024549063305244097
aF0.004378786823594958
aF9.575875757364719e-05
aF0.00969775053973118
aF0.00026986558952573296
aF0.00010446409917125147
aF0.013911135872971655
aF0.003865171669336305
aF8.70534159760429e-06
aF0.009079671286301275
aF0.004648652413120691
aF8.70534159760429e-06
aF0.0010098196253220976
aF6.964273278083432e-05
aF0.0036475381293961974
aF0.00022633888153771153
aF0.00509262483459851
aF0.00013058012396406434
aF8.70534159760429e-06
aF8.70534159760429e-06
aF4.352670798802145e-05
aF8.70534159760429e-06
aF0.00032209763911135875
aF8.70534159760429e-06
aF8.70534159760429e-06
aF8.70534159760429e-06
aF0.018255101330176195
aF0.0005658472038442789
aF0.00013928546556166865
aF0.0011229890660909535
aF0.00773034333867261
aF8.70534159760429e-06
aF3.482136639041716e-05
aF0.08975207187130023
aF0.010420293892332335
aF0.0008357127933700118
aF5.223204958562574e-05
aF0.01800264642384567
aF0.0020544606170346123
aF0.00019151751514729439
aF0.016426979594679297
aF3.482136639041716e-05
aF0.00021763353994010725
aF0.04736576363256494
aF0.0004091510550874016
aF1.741068319520858e-05
aF0.001471202729995125
aF8.70534159760429e-06
aF8.70534159760429e-06
aF8.70534159760429e-06
aF8.70534159760429e-06
aF0.004396197506790166
aF3.482136639041716e-05
aF8.70534159760429e-06
aF0.0071470854516331225
aF5.223204958562574e-05
aF8.70534159760429e-06
aF8.70534159760429e-06
aF0.0031687443415279615
aF0.11616407827843164
aF0.00011316944076885577
aF0.0004962044710634445
aF0.012857789539661536
aF0.0012448638484574134
aF0.000870534159760429
aF0.0038477609861410963
aF8.70534159760429e-06
aF0.00029598161431854586
aF0.008183021101748032
aF8.70534159760429e-06
aF0.0022895048401699284
aF8.70534159760429e-06
aF0.006076328435127795
aF0.00011316944076885577
aF0.0034908419806393204
aF0.00010446409917125147
aF0.17828539591893586
aF0.0009053555261508461
aF5.223204958562574e-05
aF8.70534159760429e-06
aF0.006111149801518212
aa(lp32
F0.09111617312072894
aF0.10871816110996066
aF0.0008283288465520812
aF0.20604680057983019
aF0.2304825015531166
aF0.04100227790432802
aF0.012424932698281217
aF0.0020708221163802027
aF0.02070822116380203
aF0.0002070822116380203
aF0.0002070822116380203
aF0.0002070822116380203
aF0.003520397597846345
aF0.0002070822116380203
aF0.0002070822116380203
aF0.0002070822116380203
aF0.0002070822116380203
aF0.03623938703665355
aF0.01490991923793746
aF0.0002070822116380203
aF0.005384137502588528
aF0.0010354110581901014
aF0.010354110581901015
aF0.0002070822116380203
aF0.0008283288465520812
aF0.0002070822116380203
aF0.0002070822116380203
aF0.0002070822116380203
aF0.0002070822116380203
aF0.0002070822116380203
aF0.0002070822116380203
aF0.0002070822116380203
aF0.0002070822116380203
aF0.0002070822116380203
aF0.08904535100434872
aF0.0006212466349140609
aF0.0002070822116380203
aF0.0012424932698281218
aF0.0006212466349140609
aF0.0002070822116380203
aF0.0002070822116380203
aF0.0002070822116380203
aF0.032097742803893145
aF0.0002070822116380203
aF0.0002070822116380203
aF0.0004141644232760406
aF0.0002070822116380203
aF0.0002070822116380203
aF0.0002070822116380203
aF0.0002070822116380203
aF0.01387450817974736
aF0.0006212466349140609
aF0.0002070822116380203
aF0.0002070822116380203
aF0.002277904328018223
aF0.0002070822116380203
aF0.0002070822116380203
aF0.0002070822116380203
aF0.0002070822116380203
aF0.0010354110581901014
aF0.0002070822116380203
aF0.0002070822116380203
aF0.0004141644232760406
aF0.0002070822116380203
aF0.0002070822116380203
aF0.0002070822116380203
aF0.0002070822116380203
aF0.005798301925864568
aF0.0002070822116380203
aF0.0002070822116380203
aF0.0002070822116380203
aF0.0002070822116380203
aF0.0002070822116380203
aF0.0002070822116380203
aF0.0002070822116380203
aF0.0002070822116380203
aF0.0002070822116380203
aF0.0002070822116380203
aF0.0002070822116380203
aF0.0002070822116380203
aF0.0002070822116380203
aF0.0002070822116380203
aF0.0012424932698281218
aF0.0002070822116380203
aF0.0006212466349140609
aF0.0002070822116380203
aF0.0002070822116380203
aF0.0002070822116380203
aF0.05239179954441914
aa(lp33
F0.0004033884630899556
aF0.0004033884630899556
aF0.0008067769261799112
aF0.010891488503428802
aF0.0004033884630899556
aF0.0016135538523598225
aF0.0004033884630899556
aF0.0004033884630899556
aF0.0004033884630899556
aF0.01290843081887858
aF0.0004033884630899556
aF0.0004033884630899556
aF0.0004033884630899556
aF0.0004033884630899556
aF0.0016135538523598225
aF0.0028237192416296895
aF0.0004033884630899556
aF0.05808793868495361
aF0.0004033884630899556
aF0.0004033884630899556
aF0.0004033884630899556
aF0.0004033884630899556
aF0.0012101653892698668
aF0.0004033884630899556
aF0.014925373134328358
aF0.0004033884630899556
aF0.0004033884630899556
aF0.0004033884630899556
aF0.0004033884630899556
aF0.0004033884630899556
aF0.0008067769261799112
aF0.0004033884630899556
aF0.0004033884630899556
aF0.0004033884630899556
aF0.0008067769261799112
aF0.0004033884630899556
aF0.0004033884630899556
aF0.0004033884630899556
aF0.020572811617587738
aF0.0004033884630899556
aF0.0004033884630899556
aF0.0004033884630899556
aF0.0004033884630899556
aF0.0004033884630899556
aF0.0004033884630899556
aF0.004437273093989512
aF0.0004033884630899556
aF0.0004033884630899556
aF0.016135538523598225
aF0.0004033884630899556
aF0.0004033884630899556
aF0.007664380798709157
aF0.0004033884630899556
aF0.0004033884630899556
aF0.0008067769261799112
aF0.0004033884630899556
aF0.0004033884630899556
aF0.0004033884630899556
aF0.0004033884630899556
aF0.04517950786607503
aF0.0004033884630899556
aF0.0004033884630899556
aF0.02581686163775716
aF0.0004033884630899556
aF0.0004033884630899556
aF0.0004033884630899556
aF0.01290843081887858
aF0.7022993142396128
aF0.0004033884630899556
aF0.0016135538523598225
aF0.0004033884630899556
aF0.0004033884630899556
aF0.0004033884630899556
aF0.002016942315449778
aF0.0004033884630899556
aF0.0004033884630899556
aF0.0008067769261799112
aF0.0004033884630899556
aF0.0004033884630899556
aF0.0004033884630899556
aF0.0004033884630899556
aF0.0004033884630899556
aF0.0004033884630899556
aF0.0008067769261799112
aF0.00927793465106898
aF0.0004033884630899556
aF0.0004033884630899556
aF0.0004033884630899556
aF0.017749092375958047
aa(lp34
F0.060784313725490195
aF0.12941176470588237
aF0.00196078431372549
aF0.10196078431372549
aF0.060784313725490195
aF0.00392156862745098
aF0.00196078431372549
aF0.025490196078431372
aF0.00392156862745098
aF0.00196078431372549
aF0.00196078431372549
aF0.00196078431372549
aF0.00196078431372549
aF0.00196078431372549
aF0.00196078431372549
aF0.0058823529411764705
aF0.00196078431372549
aF0.00392156862745098
aF0.00392156862745098
aF0.00196078431372549
aF0.00392156862745098
aF0.00196078431372549
aF0.00196078431372549
aF0.00196078431372549
aF0.00196078431372549
aF0.00196078431372549
aF0.00196078431372549
aF0.00196078431372549
aF0.00196078431372549
aF0.00196078431372549
aF0.00196078431372549
aF0.00196078431372549
aF0.00196078431372549
aF0.00196078431372549
aF0.08823529411764706
aF0.00196078431372549
aF0.00196078431372549
aF0.0058823529411764705
aF0.00196078431372549
aF0.00196078431372549
aF0.00196078431372549
aF0.00196078431372549
aF0.10784313725490197
aF0.00196078431372549
aF0.00196078431372549
aF0.00196078431372549
aF0.00196078431372549
aF0.00196078431372549
aF0.00196078431372549
aF0.00196078431372549
aF0.00196078431372549
aF0.00392156862745098
aF0.00196078431372549
aF0.00196078431372549
aF0.00196078431372549
aF0.00196078431372549
aF0.00196078431372549
aF0.00196078431372549
aF0.00196078431372549
aF0.06666666666666667
aF0.00196078431372549
aF0.00196078431372549
aF0.013725490196078431
aF0.00196078431372549
aF0.00196078431372549
aF0.00196078431372549
aF0.00196078431372549
aF0.07647058823529412
aF0.00196078431372549
aF0.00196078431372549
aF0.00196078431372549
aF0.00196078431372549
aF0.00196078431372549
aF0.00196078431372549
aF0.00196078431372549
aF0.00196078431372549
aF0.00196078431372549
aF0.00196078431372549
aF0.00196078431372549
aF0.00196078431372549
aF0.00196078431372549
aF0.00196078431372549
aF0.00196078431372549
aF0.00196078431372549
aF0.00196078431372549
aF0.00196078431372549
aF0.00196078431372549
aF0.00196078431372549
aF0.09607843137254903
aa(lp35
F0.013867379980290018
aF0.06729550893988455
aF0.00014078558355624384
aF0.06852738279600169
aF0.021399408700549065
aF0.014817682669294664
aF0.0013726594396733774
aF0.000950302689004646
aF0.004117978319020132
aF0.008658313388708996
aF0.00010558918766718288
aF0.0051386737998029
aF3.519639588906096e-05
aF0.00021117837533436576
aF0.005209066591581022
aF0.023300014078558355
aF7.039279177812192e-05
aF0.0010558918766718289
aF0.00661692242714346
aF3.519639588906096e-05
aF7.039279177812192e-05
aF3.519639588906096e-05
aF0.00021117837533436576
aF7.039279177812192e-05
aF0.00876390257637618
aF7.039279177812192e-05
aF3.519639588906096e-05
aF3.519639588906096e-05
aF3.519639588906096e-05
aF3.519639588906096e-05
aF0.03540757426439533
aF0.00038716035477967054
aF0.0007743207095593411
aF7.039279177812192e-05
aF0.013972969167957202
aF7.039279177812192e-05
aF0.0002463747712234267
aF0.0003167675630015486
aF0.028086723919470646
aF3.519639588906096e-05
aF0.0001759819794453048
aF0.013761790792622835
aF0.03561875263972969
aF0.00010558918766718288
aF3.519639588906096e-05
aF0.03737857243418274
aF0.0014078558355624384
aF0.0003167675630015486
aF0.01823173307053358
aF7.039279177812192e-05
aF0.0001759819794453048
aF0.03079684640292834
aF0.0004927495424468534
aF0.00010558918766718288
aF0.008059974658594959
aF0.0003519639588906096
aF7.039279177812192e-05
aF3.519639588906096e-05
aF0.00010558918766718288
aF0.04381951288188089
aF0.0007391243136702801
aF3.519639588906096e-05
aF0.03195832746726735
aF0.0006335351260030972
aF3.519639588906096e-05
aF3.519639588906096e-05
aF0.010488525974940165
aF0.3214838800506828
aF0.00021117837533436576
aF0.0001759819794453048
aF0.0006687315218921583
aF0.003519639588906096
aF0.0009151062931155849
aF0.01101647191327608
aF3.519639588906096e-05
aF3.519639588906096e-05
aF0.020765873574545967
aF0.001759819794453048
aF0.0029564972546811206
aF3.519639588906096e-05
aF0.0012318738561171336
aF3.519639588906096e-05
aF7.039279177812192e-05
aF3.519639588906096e-05
aF0.06405744051809095
aF0.00014078558355624384
aF3.519639588906096e-05
aF3.519639588906096e-05
aF0.004082781923131071
aa(lp36
F0.0017035775127768314
aF0.039182282793867124
aF0.0017035775127768314
aF0.23339011925042588
aF0.005110732538330494
aF0.010221465076660987
aF0.0017035775127768314
aF0.0017035775127768314
aF0.008517887563884156
aF0.0017035775127768314
aF0.0017035775127768314
aF0.0017035775127768314
aF0.0017035775127768314
aF0.0017035775127768314
aF0.0017035775127768314
aF0.0017035775127768314
aF0.0017035775127768314
aF0.0017035775127768314
aF0.0068143100511073255
aF0.0017035775127768314
aF0.0017035775127768314
aF0.0017035775127768314
aF0.0017035775127768314
aF0.0017035775127768314
aF0.0017035775127768314
aF0.0017035775127768314
aF0.0017035775127768314
aF0.0017035775127768314
aF0.0017035775127768314
aF0.0017035775127768314
aF0.19591141396933562
aF0.0017035775127768314
aF0.01192504258943782
aF0.0017035775127768314
aF0.056218057921635436
aF0.0017035775127768314
aF0.0017035775127768314
aF0.0017035775127768314
aF0.02555366269165247
aF0.0017035775127768314
aF0.0017035775127768314
aF0.0017035775127768314
aF0.059625212947189095
aF0.0017035775127768314
aF0.0017035775127768314
aF0.018739352640545145
aF0.005110732538330494
aF0.0017035775127768314
aF0.0017035775127768314
aF0.0017035775127768314
aF0.0017035775127768314
aF0.0017035775127768314
aF0.0017035775127768314
aF0.0017035775127768314
aF0.0017035775127768314
aF0.005110732538330494
aF0.0017035775127768314
aF0.0017035775127768314
aF0.0017035775127768314
aF0.0017035775127768314
aF0.0017035775127768314
aF0.0017035775127768314
aF0.0068143100511073255
aF0.0017035775127768314
aF0.0017035775127768314
aF0.0017035775127768314
aF0.0017035775127768314
aF0.0868824531516184
aF0.0017035775127768314
aF0.0017035775127768314
aF0.0017035775127768314
aF0.0017035775127768314
aF0.0017035775127768314
aF0.0017035775127768314
aF0.0017035775127768314
aF0.0017035775127768314
aF0.0017035775127768314
aF0.0017035775127768314
aF0.0017035775127768314
aF0.0017035775127768314
aF0.0017035775127768314
aF0.0017035775127768314
aF0.0017035775127768314
aF0.0017035775127768314
aF0.09369676320272573
aF0.0034071550255536627
aF0.0017035775127768314
aF0.0017035775127768314
aF0.008517887563884156
aa(lp37
F0.0031162355874104083
aF0.04362729822374572
aF0.0003116235587410408
aF0.0442505453412278
aF0.010595200997195388
aF0.006544094733561857
aF0.0003116235587410408
aF0.0003116235587410408
aF0.0015581177937052041
aF0.0021813649111872857
aF0.0003116235587410408
aF0.039887815518853224
aF0.0009348706762231225
aF0.0003116235587410408
aF0.009971953879713306
aF0.019320660641944532
aF0.0003116235587410408
aF0.003427859146151449
aF0.0015581177937052041
aF0.0003116235587410408
aF0.0003116235587410408
aF0.0003116235587410408
aF0.0009348706762231225
aF0.0003116235587410408
aF0.0015581177937052041
aF0.0003116235587410408
aF0.0003116235587410408
aF0.0003116235587410408
aF0.0003116235587410408
aF0.0003116235587410408
aF0.12246805858522904
aF0.0003116235587410408
aF0.003427859146151449
aF0.0003116235587410408
aF0.00373948270489249
aF0.0003116235587410408
aF0.0003116235587410408
aF0.0009348706762231225
aF0.06544094733561857
aF0.0003116235587410408
aF0.0006232471174820816
aF0.06731068868806482
aF0.013399813025864755
aF0.0006232471174820816
aF0.0009348706762231225
aF0.12589591773138048
aF0.005297600498597694
aF0.0031162355874104083
aF0.024306637581801183
aF0.0009348706762231225
aF0.0015581177937052041
aF0.015581177937052042
aF0.0012464942349641633
aF0.001869741352446245
aF0.039264568401371144
aF0.0031162355874104083
aF0.0003116235587410408
aF0.0003116235587410408
aF0.0003116235587410408
aF0.020878778435649736
aF0.0009348706762231225
aF0.0003116235587410408
aF0.044562168899968835
aF0.0009348706762231225
aF0.0003116235587410408
aF0.0003116235587410408
aF0.0024929884699283265
aF0.08133374883141166
aF0.0003116235587410408
aF0.0003116235587410408
aF0.0003116235587410408
aF0.010595200997195388
aF0.0003116235587410408
aF0.0009348706762231225
aF0.0003116235587410408
aF0.0003116235587410408
aF0.028669367404175757
aF0.0024929884699283265
aF0.0006232471174820816
aF0.0009348706762231225
aF0.00373948270489249
aF0.0003116235587410408
aF0.0003116235587410408
aF0.0003116235587410408
aF0.054222499220941106
aF0.0006232471174820816
aF0.0012464942349641633
aF0.0003116235587410408
aF0.04300405110626363
aa(lp38
F0.018782014797951052
aF0.09296148738379814
aF0.00018971732119142478
aF0.12749003984063745
aF0.0206791880098653
aF0.03339024852969076
aF0.00018971732119142478
aF0.0030354771390627964
aF0.011762473913868336
aF0.0007588692847656991
aF0.00018971732119142478
aF0.0011383039271485487
aF0.0013280212483399733
aF0.00018971732119142478
aF0.05046480743691899
aF0.0005691519635742744
aF0.00037943464238284955
aF0.0022766078542970974
aF0.02428381711250237
aF0.00018971732119142478
aF0.0028457598178713715
aF0.00018971732119142478
aF0.0024663251754885223
aF0.00018971732119142478
aF0.00018971732119142478
aF0.00018971732119142478
aF0.00018971732119142478
aF0.00018971732119142478
aF0.00018971732119142478
aF0.00018971732119142478
aF0.01707455890722823
aF0.0007588692847656991
aF0.0020868905331056726
aF0.00018971732119142478
aF0.005122367672168469
aF0.00018971732119142478
aF0.00018971732119142478
aF0.00018971732119142478
aF0.008537279453614115
aF0.00018971732119142478
aF0.00018971732119142478
aF0.05957123885410738
aF0.02029975336748245
aF0.0005691519635742744
aF0.00018971732119142478
aF0.007019540884082717
aF0.0005691519635742744
aF0.0009485866059571238
aF0.006070954278125593
aF0.0007588692847656991
aF0.00018971732119142478
aF0.007209258205274142
aF0.00018971732119142478
aF0.00018971732119142478
aF0.12843862644659457
aF0.00018971732119142478
aF0.00018971732119142478
aF0.00018971732119142478
aF0.00018971732119142478
aF0.040409789413773475
aF0.00037943464238284955
aF0.00018971732119142478
aF0.02656042496679947
aF0.00018971732119142478
aF0.00018971732119142478
aF0.00018971732119142478
aF0.001707455890722823
aF0.1806108897742364
aF0.00018971732119142478
aF0.00018971732119142478
aF0.00018971732119142478
aF0.0009485866059571238
aF0.00018971732119142478
aF0.0443938531587934
aF0.00018971732119142478
aF0.00018971732119142478
aF0.0005691519635742744
aF0.00018971732119142478
aF0.00018971732119142478
aF0.00018971732119142478
aF0.0005691519635742744
aF0.00018971732119142478
aF0.00018971732119142478
aF0.00018971732119142478
aF0.02978561942705369
aF0.00018971732119142478
aF0.00018971732119142478
aF0.00018971732119142478
aF0.005691519635742743
aa(lp39
F0.07122578621284605
aF0.16478707552348834
aF0.005991686926515568
aF0.1025017645674849
aF0.14900792094737667
aF0.009975688181319112
aF0.01599874519645518
aF0.00806211277546859
aF0.0023527566465375263
aF0.11166183044467101
aF0.0008469923927535095
aF0.0002039055760332523
aF0.003936946121872794
aF0.00025096070896400284
aF1.5685044310250178e-05
aF0.00017253548741275195
aF1.5685044310250178e-05
aF0.05285859932554309
aF0.010791310485452121
aF1.5685044310250178e-05
aF0.004250647008077798
aF1.5685044310250178e-05
aF0.011622617833895382
aF0.005599560818759313
aF0.0009254176143047604
aF0.00036075601913575407
aF1.5685044310250178e-05
aF4.705513293075053e-05
aF0.0004078111520665046
aF1.5685044310250178e-05
aF0.002070425848953023
aF1.5685044310250178e-05
aF1.5685044310250178e-05
aF1.5685044310250178e-05
aF0.03824013802838993
aF0.001066583013097012
aF0.01422633518939691
aF0.004031056387734295
aF1.5685044310250178e-05
aF1.5685044310250178e-05
aF1.5685044310250178e-05
aF0.004909418869108305
aF0.002415496823778527
aF1.5685044310250178e-05
aF1.5685044310250178e-05
aF0.00017253548741275195
aF1.5685044310250178e-05
aF1.5685044310250178e-05
aF0.00036075601913575407
aF1.5685044310250178e-05
aF0.0076856717120225865
aF0.0009881577915457612
aF1.5685044310250178e-05
aF3.1370088620500355e-05
aF0.0004078111520665046
aF6.274017724100071e-05
aF1.5685044310250178e-05
aF1.5685044310250178e-05
aF1.5685044310250178e-05
aF0.0011606932789585132
aF3.1370088620500355e-05
aF1.5685044310250178e-05
aF0.07737432358246413
aF0.00045486628499725513
aF1.5685044310250178e-05
aF1.5685044310250178e-05
aF0.001066583013097012
aF0.027041016390871305
aF1.5685044310250178e-05
aF0.0015371343424045174
aF1.5685044310250178e-05
aF1.5685044310250178e-05
aF1.5685044310250178e-05
aF0.00012548035448200142
aF4.705513293075053e-05
aF0.007183750294094581
aF0.0004705513293075053
aF1.5685044310250178e-05
aF0.0010352129244765116
aF1.5685044310250178e-05
aF0.00015685044310250176
aF1.5685044310250178e-05
aF1.5685044310250178e-05
aF0.00023527566465375265
aF0.0008626774370637597
aF1.5685044310250178e-05
aF1.5685044310250178e-05
aF1.5685044310250178e-05
aF0.07015920319974904
aa(lp40
F0.038871473354231974
aF0.0438871473354232
aF0.0006269592476489029
aF0.14231974921630094
aF0.13479623824451412
aF0.0438871473354232
aF0.0006269592476489029
aF0.0025078369905956114
aF0.014420062695924765
aF0.038871473354231974
aF0.0006269592476489029
aF0.0006269592476489029
aF0.0006269592476489029
aF0.0006269592476489029
aF0.0006269592476489029
aF0.0006269592476489029
aF0.0006269592476489029
aF0.011912225705329153
aF0.006896551724137931
aF0.0006269592476489029
aF0.0006269592476489029
aF0.0006269592476489029
aF0.0006269592476489029
aF0.0006269592476489029
aF0.0006269592476489029
aF0.0006269592476489029
aF0.0006269592476489029
aF0.0006269592476489029
aF0.0006269592476489029
aF0.0006269592476489029
aF0.0006269592476489029
aF0.0006269592476489029
aF0.0006269592476489029
aF0.0006269592476489029
aF0.16739811912225705
aF0.0006269592476489029
aF0.0006269592476489029
aF0.005015673981191223
aF0.0006269592476489029
aF0.0006269592476489029
aF0.0006269592476489029
aF0.0006269592476489029
aF0.07398119122257053
aF0.0006269592476489029
aF0.0006269592476489029
aF0.0006269592476489029
aF0.0006269592476489029
aF0.0006269592476489029
aF0.0006269592476489029
aF0.0006269592476489029
aF0.0006269592476489029
aF0.0006269592476489029
aF0.0006269592476489029
aF0.0006269592476489029
aF0.0006269592476489029
aF0.0006269592476489029
aF0.0006269592476489029
aF0.0006269592476489029
aF0.0006269592476489029
aF0.0006269592476489029
aF0.0006269592476489029
aF0.0006269592476489029
aF0.053918495297805645
aF0.0006269592476489029
aF0.0006269592476489029
aF0.0006269592476489029
aF0.0006269592476489029
aF0.019435736677115987
aF0.0006269592476489029
aF0.0006269592476489029
aF0.0006269592476489029
aF0.0006269592476489029
aF0.0006269592476489029
aF0.0006269592476489029
aF0.0006269592476489029
aF0.0006269592476489029
aF0.0006269592476489029
aF0.0006269592476489029
aF0.0006269592476489029
aF0.0006269592476489029
aF0.0006269592476489029
aF0.0006269592476489029
aF0.0006269592476489029
aF0.0006269592476489029
aF0.0006269592476489029
aF0.0006269592476489029
aF0.0006269592476489029
aF0.0006269592476489029
aF0.1561128526645768
aa(lp41
F0.002074688796680498
aF0.002074688796680498
aF0.006224066390041493
aF0.14315352697095435
aF0.002074688796680498
aF0.014522821576763486
aF0.002074688796680498
aF0.002074688796680498
aF0.006224066390041493
aF0.03734439834024896
aF0.002074688796680498
aF0.002074688796680498
aF0.002074688796680498
aF0.002074688796680498
aF0.002074688796680498
aF0.002074688796680498
aF0.002074688796680498
aF0.01037344398340249
aF0.002074688796680498
aF0.002074688796680498
aF0.002074688796680498
aF0.002074688796680498
aF0.002074688796680498
aF0.002074688796680498
aF0.004149377593360996
aF0.002074688796680498
aF0.002074688796680498
aF0.002074688796680498
aF0.002074688796680498
aF0.002074688796680498
aF0.006224066390041493
aF0.002074688796680498
aF0.002074688796680498
aF0.002074688796680498
aF0.002074688796680498
aF0.002074688796680498
aF0.006224066390041493
aF0.002074688796680498
aF0.002074688796680498
aF0.002074688796680498
aF0.002074688796680498
aF0.002074688796680498
aF0.002074688796680498
aF0.002074688796680498
aF0.002074688796680498
aF0.002074688796680498
aF0.002074688796680498
aF0.002074688796680498
aF0.03941908713692946
aF0.002074688796680498
aF0.002074688796680498
aF0.002074688796680498
aF0.002074688796680498
aF0.002074688796680498
aF0.002074688796680498
aF0.002074688796680498
aF0.002074688796680498
aF0.002074688796680498
aF0.002074688796680498
aF0.002074688796680498
aF0.002074688796680498
aF0.002074688796680498
aF0.02074688796680498
aF0.002074688796680498
aF0.002074688796680498
aF0.002074688796680498
aF0.01037344398340249
aF0.44813278008298757
aF0.002074688796680498
aF0.002074688796680498
aF0.002074688796680498
aF0.002074688796680498
aF0.002074688796680498
aF0.002074688796680498
aF0.002074688796680498
aF0.002074688796680498
aF0.004149377593360996
aF0.002074688796680498
aF0.002074688796680498
aF0.002074688796680498
aF0.002074688796680498
aF0.002074688796680498
aF0.002074688796680498
aF0.002074688796680498
aF0.006224066390041493
aF0.002074688796680498
aF0.002074688796680498
aF0.002074688796680498
aF0.08506224066390042
aa(lp42
F0.07025906735751296
aF0.07763385146804835
aF0.0021416234887737477
aF0.19917098445595854
aF0.24181347150259067
aF0.015094991364421417
aF0.011208981001727117
aF0.004110535405872194
aF0.005526770293609672
aF0.05640759930915371
aF0.0002936096718480138
aF0.0008635578583765112
aF0.006735751295336788
aF5.1813471502590674e-05
aF0.0011053540587219344
aF0.0029533678756476682
aF1.7271157167530226e-05
aF0.03772020725388601
aF0.005146804835924007
aF1.7271157167530226e-05
aF0.0032469775474956823
aF1.7271157167530226e-05
aF0.023385146804835923
aF0.00012089810017271158
aF0.008825561312607944
aF0.00010362694300518135
aF1.7271157167530226e-05
aF1.7271157167530226e-05
aF0.00025906735751295336
aF1.7271157167530226e-05
aF0.018721934369602764
aF1.7271157167530226e-05
aF1.7271157167530226e-05
aF1.7271157167530226e-05
aF0.04905008635578584
aF0.00018998272884283247
aF0.0009153713298791019
aF0.002366148531951641
aF0.005336787564766839
aF1.7271157167530226e-05
aF3.454231433506045e-05
aF0.00017271157167530224
aF1.7271157167530226e-05
aF1.7271157167530226e-05
aF1.7271157167530226e-05
aF0.0008808290155440415
aF1.7271157167530226e-05
aF0.00012089810017271158
aF0.0048877374784110535
aF1.7271157167530226e-05
aF0.0005526770293609672
aF0.0029533678756476682
aF0.00025906735751295336
aF3.454231433506045e-05
aF0.0010708117443868738
aF1.7271157167530226e-05
aF1.7271157167530226e-05
aF1.7271157167530226e-05
aF1.7271157167530226e-05
aF0.014559585492227979
aF6.90846286701209e-05
aF1.7271157167530226e-05
aF0.023540587219343698
aF1.7271157167530226e-05
aF3.454231433506045e-05
aF1.7271157167530226e-05
aF0.008618307426597582
aF0.051312607944732296
aF8.635578583765112e-05
aF1.7271157167530226e-05
aF1.7271157167530226e-05
aF1.7271157167530226e-05
aF1.7271157167530226e-05
aF0.0023488773747841105
aF1.7271157167530226e-05
aF3.454231433506045e-05
aF0.01153713298791019
aF1.7271157167530226e-05
aF0.00017271157167530224
aF1.7271157167530226e-05
aF0.0008808290155440415
aF5.1813471502590674e-05
aF0.0016234887737478412
aF0.0005181347150259067
aF0.0015544041450777201
aF1.7271157167530226e-05
aF1.7271157167530226e-05
aF1.7271157167530226e-05
aF0.02077720207253886
aa(lp43
F0.038746908491343775
aF0.016488046166529265
aF0.0008244023083264633
aF0.12530915086562242
aF0.09727947238252267
aF0.026380873866446827
aF0.004122011541632316
aF0.0016488046166529267
aF0.004122011541632316
aF0.016488046166529265
aF0.0008244023083264633
aF0.0008244023083264633
aF0.005770816158285243
aF0.0008244023083264633
aF0.0008244023083264633
aF0.0032976092333058533
aF0.0008244023083264633
aF0.0032976092333058533
aF0.0008244023083264633
aF0.0008244023083264633
aF0.0008244023083264633
aF0.0008244023083264633
aF0.07337180544105523
aF0.0008244023083264633
aF0.008244023083264633
aF0.0008244023083264633
aF0.0008244023083264633
aF0.0008244023083264633
aF0.0008244023083264633
aF0.0008244023083264633
aF0.0016488046166529267
aF0.0008244023083264633
aF0.0008244023083264633
aF0.0008244023083264633
aF0.09233305853256389
aF0.0008244023083264633
aF0.0008244023083264633
aF0.00247320692497939
aF0.03709810387469085
aF0.0008244023083264633
aF0.0008244023083264633
aF0.0008244023083264633
aF0.0008244023083264633
aF0.0008244023083264633
aF0.0008244023083264633
aF0.0008244023083264633
aF0.0008244023083264633
aF0.0008244023083264633
aF0.00989282769991756
aF0.0008244023083264633
aF0.0008244023083264633
aF0.009068425391591096
aF0.0008244023083264633
aF0.0008244023083264633
aF0.00247320692497939
aF0.0008244023083264633
aF0.0008244023083264633
aF0.0008244023083264633
aF0.0008244023083264633
aF0.014014839241549877
aF0.0016488046166529267
aF0.0008244023083264633
aF0.04699093157460841
aF0.0008244023083264633
aF0.0008244023083264633
aF0.0008244023083264633
aF0.01236603462489695
aF0.24154987633965375
aF0.0008244023083264633
aF0.0008244023083264633
aF0.0008244023083264633
aF0.0008244023083264633
aF0.0008244023083264633
aF0.0008244023083264633
aF0.0008244023083264633
aF0.0008244023083264633
aF0.0008244023083264633
aF0.0008244023083264633
aF0.0008244023083264633
aF0.0008244023083264633
aF0.0008244023083264633
aF0.0008244023083264633
aF0.0008244023083264633
aF0.0008244023083264633
aF0.004122011541632316
aF0.0008244023083264633
aF0.0008244023083264633
aF0.0008244023083264633
aF0.0494641384995878
aa(lp44
F0.0021382751247327157
aF0.0021382751247327157
aF0.0007127583749109052
aF0.01496792587312901
aF0.0007127583749109052
aF0.009978617248752673
aF0.0007127583749109052
aF0.0007127583749109052
aF0.0007127583749109052
aF0.024946543121881683
aF0.0007127583749109052
aF0.0007127583749109052
aF0.0007127583749109052
aF0.0007127583749109052
aF0.0007127583749109052
aF0.006414825374198147
aF0.0007127583749109052
aF0.007127583749109052
aF0.007127583749109052
aF0.0007127583749109052
aF0.0007127583749109052
aF0.0007127583749109052
aF0.0007127583749109052
aF0.0007127583749109052
aF0.0021382751247327157
aF0.0007127583749109052
aF0.0007127583749109052
aF0.0007127583749109052
aF0.0007127583749109052
aF0.0007127583749109052
aF0.01496792587312901
aF0.0007127583749109052
aF0.0007127583749109052
aF0.0007127583749109052
aF0.0007127583749109052
aF0.0007127583749109052
aF0.002851033499643621
aF0.0007127583749109052
aF0.010691375623663579
aF0.0007127583749109052
aF0.0007127583749109052
aF0.0007127583749109052
aF0.0007127583749109052
aF0.0007127583749109052
aF0.0007127583749109052
aF0.0007127583749109052
aF0.0007127583749109052
aF0.0007127583749109052
aF0.0007127583749109052
aF0.0007127583749109052
aF0.0007127583749109052
aF0.003563791874554526
aF0.0007127583749109052
aF0.0007127583749109052
aF0.007127583749109052
aF0.0007127583749109052
aF0.0007127583749109052
aF0.0007127583749109052
aF0.0007127583749109052
aF0.024946543121881683
aF0.0007127583749109052
aF0.0007127583749109052
aF0.02993585174625802
aF0.0007127583749109052
aF0.0007127583749109052
aF0.0007127583749109052
aF0.027797576621525304
aF0.6970776906628653
aF0.0007127583749109052
aF0.0021382751247327157
aF0.0007127583749109052
aF0.0007127583749109052
aF0.0007127583749109052
aF0.010691375623663579
aF0.0007127583749109052
aF0.0007127583749109052
aF0.0042765502494654314
aF0.0007127583749109052
aF0.0007127583749109052
aF0.0007127583749109052
aF0.0007127583749109052
aF0.0007127583749109052
aF0.0007127583749109052
aF0.0007127583749109052
aF0.012116892373485389
aF0.0007127583749109052
aF0.0007127583749109052
aF0.0007127583749109052
aF0.027797576621525304
aa(lp45
F0.015748031496062992
aF0.1968503937007874
aF0.007874015748031496
aF0.05511811023622047
aF0.007874015748031496
aF0.007874015748031496
aF0.007874015748031496
aF0.007874015748031496
aF0.007874015748031496
aF0.023622047244094488
aF0.007874015748031496
aF0.007874015748031496
aF0.007874015748031496
aF0.007874015748031496
aF0.007874015748031496
aF0.015748031496062992
aF0.007874015748031496
aF0.023622047244094488
aF0.007874015748031496
aF0.007874015748031496
aF0.007874015748031496
aF0.007874015748031496
aF0.015748031496062992
aF0.007874015748031496
aF0.007874015748031496
aF0.007874015748031496
aF0.007874015748031496
aF0.007874015748031496
aF0.007874015748031496
aF0.007874015748031496
aF0.007874015748031496
aF0.007874015748031496
aF0.007874015748031496
aF0.007874015748031496
aF0.007874015748031496
aF0.007874015748031496
aF0.007874015748031496
aF0.007874015748031496
aF0.007874015748031496
aF0.007874015748031496
aF0.007874015748031496
aF0.007874015748031496
aF0.007874015748031496
aF0.007874015748031496
aF0.007874015748031496
aF0.007874015748031496
aF0.007874015748031496
aF0.007874015748031496
aF0.007874015748031496
aF0.007874015748031496
aF0.007874015748031496
aF0.007874015748031496
aF0.007874015748031496
aF0.007874015748031496
aF0.007874015748031496
aF0.007874015748031496
aF0.007874015748031496
aF0.007874015748031496
aF0.007874015748031496
aF0.007874015748031496
aF0.007874015748031496
aF0.007874015748031496
aF0.007874015748031496
aF0.007874015748031496
aF0.007874015748031496
aF0.007874015748031496
aF0.007874015748031496
aF0.007874015748031496
aF0.007874015748031496
aF0.007874015748031496
aF0.007874015748031496
aF0.007874015748031496
aF0.007874015748031496
aF0.007874015748031496
aF0.007874015748031496
aF0.007874015748031496
aF0.007874015748031496
aF0.007874015748031496
aF0.007874015748031496
aF0.007874015748031496
aF0.007874015748031496
aF0.007874015748031496
aF0.007874015748031496
aF0.007874015748031496
aF0.007874015748031496
aF0.007874015748031496
aF0.007874015748031496
aF0.007874015748031496
aF0.015748031496062992
aa(lp46
F0.06739614602498305
aF0.12610955101513832
aF0.003486007553016365
aF0.10977696007230238
aF0.17497821245279366
aF0.02191665859720474
aF0.0019043930150737548
aF0.004712565766114715
aF0.011910525806139247
aF0.19063296859365417
aF0.0002905006294180304
aF3.227784771311449e-05
aF0.0026790613601885027
aF9.683354313934346e-05
aF9.683354313934346e-05
aF0.0010974468222458927
aF3.227784771311449e-05
aF0.03334301668764727
aF0.007165682192311416
aF0.0020657822536393274
aF0.006294180304057325
aF3.227784771311449e-05
aF0.002711339207901617
aF0.002259449339918014
aF0.0017430037765081825
aF9.683354313934346e-05
aF3.227784771311449e-05
aF3.227784771311449e-05
aF0.00022594493399180144
aF3.227784771311449e-05
aF0.02514444336851619
aF3.227784771311449e-05
aF0.00012911139085245796
aF9.683354313934346e-05
aF0.03957264129627836
aF6.455569542622898e-05
aF0.001968948710499984
aF0.005487234111229463
aF0.0023562828830573576
aF3.227784771311449e-05
aF3.227784771311449e-05
aF0.0027436170556147314
aF0.008650463187114684
aF3.227784771311449e-05
aF3.227784771311449e-05
aF0.0008069461928278622
aF3.227784771311449e-05
aF3.227784771311449e-05
aF0.0017430037765081825
aF3.227784771311449e-05
aF0.0007746683451147477
aF9.683354313934346e-05
aF9.683354313934346e-05
aF3.227784771311449e-05
aF0.00019366708627868693
aF3.227784771311449e-05
aF3.227784771311449e-05
aF3.227784771311449e-05
aF3.227784771311449e-05
aF0.01042574481133598
aF9.683354313934346e-05
aF3.227784771311449e-05
aF0.061166521416351954
aF0.0003227784771311449
aF3.227784771311449e-05
aF3.227784771311449e-05
aF0.003937897420999968
aF0.013750363125786773
aF3.227784771311449e-05
aF3.227784771311449e-05
aF3.227784771311449e-05
aF3.227784771311449e-05
aF3.227784771311449e-05
aF0.0007101126496885187
aF6.455569542622898e-05
aF0.0039701752687130824
aF6.455569542622898e-05
aF3.227784771311449e-05
aF9.683354313934346e-05
aF3.227784771311449e-05
aF0.00012911139085245796
aF3.227784771311449e-05
aF0.0004518898679836029
aF3.227784771311449e-05
aF0.0008715018882540913
aF3.227784771311449e-05
aF3.227784771311449e-05
aF3.227784771311449e-05
aF0.039927697621122624
aa(lp47
F0.09259259259259259
aF0.00205761316872428
aF0.00205761316872428
aF0.07613168724279835
aF0.00205761316872428
aF0.06790123456790123
aF0.00205761316872428
aF0.00205761316872428
aF0.00205761316872428
aF0.006172839506172839
aF0.00205761316872428
aF0.00205761316872428
aF0.00205761316872428
aF0.00205761316872428
aF0.00205761316872428
aF0.00411522633744856
aF0.00205761316872428
aF0.012345679012345678
aF0.00205761316872428
aF0.00205761316872428
aF0.00205761316872428
aF0.00205761316872428
aF0.00205761316872428
aF0.00205761316872428
aF0.02263374485596708
aF0.00205761316872428
aF0.00205761316872428
aF0.00205761316872428
aF0.00205761316872428
aF0.00205761316872428
aF0.0205761316872428
aF0.00205761316872428
aF0.00205761316872428
aF0.00205761316872428
aF0.00205761316872428
aF0.00205761316872428
aF0.00205761316872428
aF0.00205761316872428
aF0.03909465020576132
aF0.00205761316872428
aF0.00205761316872428
aF0.00205761316872428
aF0.00205761316872428
aF0.00205761316872428
aF0.00205761316872428
aF0.00205761316872428
aF0.00205761316872428
aF0.00205761316872428
aF0.05761316872427984
aF0.00205761316872428
aF0.00205761316872428
aF0.01646090534979424
aF0.00205761316872428
aF0.00205761316872428
aF0.00205761316872428
aF0.00205761316872428
aF0.00205761316872428
aF0.00205761316872428
aF0.00205761316872428
aF0.1831275720164609
aF0.00411522633744856
aF0.00205761316872428
aF0.13786008230452676
aF0.00205761316872428
aF0.00205761316872428
aF0.00205761316872428
aF0.053497942386831275
aF0.03909465020576132
aF0.00205761316872428
aF0.00205761316872428
aF0.00205761316872428
aF0.00205761316872428
aF0.00205761316872428
aF0.00205761316872428
aF0.00205761316872428
aF0.00205761316872428
aF0.006172839506172839
aF0.00205761316872428
aF0.00205761316872428
aF0.00205761316872428
aF0.00205761316872428
aF0.00205761316872428
aF0.00205761316872428
aF0.00205761316872428
aF0.012345679012345678
aF0.00205761316872428
aF0.00205761316872428
aF0.00205761316872428
aF0.00411522633744856
aa(lp48
F0.20126461465044143
aF0.1628489620615605
aF0.00023860653781913624
aF0.2437365783822477
aF0.10474827010260081
aF0.092817943211644
aF0.0005965163445478406
aF0.0011930326890956812
aF0.028990694345025055
aF0.031376759723216414
aF0.00011930326890956812
aF0.00011930326890956812
aF0.00011930326890956812
aF0.00011930326890956812
aF0.023622047244094488
aF0.00011930326890956812
aF0.00011930326890956812
aF0.0020281555714626582
aF0.006084466714387974
aF0.00011930326890956812
aF0.00035790980672870435
aF0.00011930326890956812
aF0.00011930326890956812
aF0.00011930326890956812
aF0.00011930326890956812
aF0.00011930326890956812
aF0.00011930326890956812
aF0.00011930326890956812
aF0.00011930326890956812
aF0.00011930326890956812
aF0.000954426151276545
aF0.00011930326890956812
aF0.00035790980672870435
aF0.00011930326890956812
aF0.02982581722739203
aF0.00011930326890956812
aF0.00023860653781913624
aF0.008351228823669768
aF0.00011930326890956812
aF0.00011930326890956812
aF0.00011930326890956812
aF0.00011930326890956812
aF0.006203769983297542
aF0.00011930326890956812
aF0.00011930326890956812
aF0.00011930326890956812
aF0.00011930326890956812
aF0.00011930326890956812
aF0.00011930326890956812
aF0.00011930326890956812
aF0.00011930326890956812
aF0.00011930326890956812
aF0.00011930326890956812
aF0.00011930326890956812
aF0.00011930326890956812
aF0.00011930326890956812
aF0.00011930326890956812
aF0.00011930326890956812
aF0.00011930326890956812
aF0.00011930326890956812
aF0.00011930326890956812
aF0.00011930326890956812
aF0.006203769983297542
aF0.00011930326890956812
aF0.00011930326890956812
aF0.00011930326890956812
aF0.00011930326890956812
aF0.03066094010975901
aF0.00011930326890956812
aF0.00011930326890956812
aF0.00011930326890956812
aF0.00011930326890956812
aF0.00011930326890956812
aF0.00011930326890956812
aF0.00011930326890956812
aF0.00011930326890956812
aF0.00011930326890956812
aF0.00011930326890956812
aF0.00011930326890956812
aF0.00011930326890956812
aF0.00011930326890956812
aF0.00011930326890956812
aF0.00011930326890956812
aF0.00011930326890956812
aF0.0015509424958243855
aF0.00011930326890956812
aF0.00011930326890956812
aF0.00011930326890956812
aF0.007993319016941064
aa(lp49
F0.09986179664363277
aF0.11585389930898322
aF0.006831194471865745
aF0.17303060217176702
aF0.08667324777887463
aF0.019230009871668313
aF0.010977295162882527
aF0.005488647581441263
aF0.022309970384995065
aF0.09579466929911155
aF0.0007502467917077986
aF3.948667324777888e-05
aF0.0008687068114511352
aF7.897334649555775e-05
aF0.0004343534057255676
aF7.897334649555775e-05
aF3.948667324777888e-05
aF0.06811451135241856
aF0.010542941757156959
aF3.948667324777888e-05
aF0.008134254689042449
aF3.948667324777888e-05
aF0.004067127344521224
aF0.0019743336623889436
aF0.000315893385982231
aF7.897334649555775e-05
aF3.948667324777888e-05
aF3.948667324777888e-05
aF0.0007897334649555774
aF3.948667324777888e-05
aF0.0013030602171767028
aF3.948667324777888e-05
aF3.948667324777888e-05
aF3.948667324777888e-05
aF0.020612043435340573
aF7.897334649555775e-05
aF0.009911154985192497
aF0.014728529121421521
aF0.0004738400789733465
aF3.948667324777888e-05
aF3.948667324777888e-05
aF0.000631786771964462
aF0.0015794669299111549
aF3.948667324777888e-05
aF3.948667324777888e-05
aF0.00023692003948667324
aF3.948667324777888e-05
aF3.948667324777888e-05
aF3.948667324777888e-05
aF3.948667324777888e-05
aF0.0005133267522211254
aF0.0014215202369200395
aF7.897334649555775e-05
aF3.948667324777888e-05
aF0.0007107601184600197
aF3.948667324777888e-05
aF3.948667324777888e-05
aF3.948667324777888e-05
aF3.948667324777888e-05
aF0.0011846001974333662
aF7.897334649555775e-05
aF3.948667324777888e-05
aF0.11968410661401777
aF0.0007502467917077986
aF3.948667324777888e-05
aF3.948667324777888e-05
aF0.0008292201382033564
aF0.007857847976307996
aF7.897334649555775e-05
aF3.948667324777888e-05
aF3.948667324777888e-05
aF3.948667324777888e-05
aF3.948667324777888e-05
aF0.0004738400789733465
aF3.948667324777888e-05
aF0.0073050345508390915
aF7.897334649555775e-05
aF3.948667324777888e-05
aF3.948667324777888e-05
aF3.948667324777888e-05
aF0.0001579466929911155
aF3.948667324777888e-05
aF3.948667324777888e-05
aF3.948667324777888e-05
aF0.05382033563672261
aF0.00011846001974333662
aF0.00011846001974333662
aF3.948667324777888e-05
aF0.02140177690029615
aa(lp50
F0.040371561271882815
aF0.03751339764201501
aF0.0003572704537334762
aF0.1775634155055377
aF0.18756698821007503
aF0.017506252232940337
aF0.0003572704537334762
aF0.031082529474812434
aF0.007145409074669525
aF0.054305108967488386
aF0.0003572704537334762
aF0.0003572704537334762
aF0.0003572704537334762
aF0.0003572704537334762
aF0.0003572704537334762
aF0.0007145409074669524
aF0.0003572704537334762
aF0.010718113612004287
aF0.0003572704537334762
aF0.0003572704537334762
aF0.0017863522686673813
aF0.0010718113612004287
aF0.0003572704537334762
aF0.0003572704537334762
aF0.004287245444801715
aF0.0003572704537334762
aF0.0003572704537334762
aF0.0003572704537334762
aF0.0003572704537334762
aF0.0003572704537334762
aF0.008931761343336906
aF0.0003572704537334762
aF0.0003572704537334762
aF0.0003572704537334762
aF0.09253304751697035
aF0.0003572704537334762
aF0.0003572704537334762
aF0.037156127188281526
aF0.0021436227224008574
aF0.0003572704537334762
aF0.0003572704537334762
aF0.0017863522686673813
aF0.016434440871739908
aF0.0003572704537334762
aF0.0003572704537334762
aF0.0003572704537334762
aF0.0003572704537334762
aF0.0003572704537334762
aF0.0003572704537334762
aF0.0003572704537334762
aF0.0003572704537334762
aF0.0010718113612004287
aF0.0003572704537334762
aF0.0003572704537334762
aF0.0017863522686673813
aF0.0007145409074669524
aF0.0003572704537334762
aF0.0003572704537334762
aF0.0003572704537334762
aF0.008217220435869954
aF0.0014290818149339049
aF0.0003572704537334762
aF0.07324044301536263
aF0.0003572704537334762
aF0.0003572704537334762
aF0.0003572704537334762
aF0.0003572704537334762
aF0.06395141121829225
aF0.0003572704537334762
aF0.0003572704537334762
aF0.0003572704537334762
aF0.0003572704537334762
aF0.0003572704537334762
aF0.0057163272597356195
aF0.0003572704537334762
aF0.0003572704537334762
aF0.0003572704537334762
aF0.0003572704537334762
aF0.0003572704537334762
aF0.0003572704537334762
aF0.0007145409074669524
aF0.0003572704537334762
aF0.0003572704537334762
aF0.0003572704537334762
aF0.003215434083601286
aF0.0003572704537334762
aF0.0003572704537334762
aF0.0003572704537334762
aF0.08824580207216863
aa(lp51
F0.012946979038224414
aF0.17262638717632553
aF0.0006165228113440197
aF0.07644882860665844
aF0.0499383477188656
aF0.0006165228113440197
aF0.0006165228113440197
aF0.010480887792848335
aF0.0006165228113440197
aF0.010480887792848335
aF0.0006165228113440197
aF0.016646115906288533
aF0.0006165228113440197
aF0.0006165228113440197
aF0.0012330456226880395
aF0.006781750924784217
aF0.0006165228113440197
aF0.011713933415536375
aF0.013563501849568433
aF0.0006165228113440197
aF0.0006165228113440197
aF0.0012330456226880395
aF0.0006165228113440197
aF0.0006165228113440197
aF0.006781750924784217
aF0.0006165228113440197
aF0.0006165228113440197
aF0.0006165228113440197
aF0.0006165228113440197
aF0.0006165228113440197
aF0.035758323057953144
aF0.0006165228113440197
aF0.011097410604192354
aF0.0006165228113440197
aF0.0530209617755857
aF0.0006165228113440197
aF0.0006165228113440197
aF0.0006165228113440197
aF0.008014796547472256
aF0.0006165228113440197
aF0.0006165228113440197
aF0.03020961775585697
aF0.05055487053020962
aF0.0018495684340320592
aF0.0006165228113440197
aF0.0012330456226880395
aF0.0006165228113440197
aF0.0006165228113440197
aF0.009864364981504316
aF0.0006165228113440197
aF0.0006165228113440197
aF0.03822441430332922
aF0.0006165228113440197
aF0.0006165228113440197
aF0.008014796547472256
aF0.0006165228113440197
aF0.0006165228113440197
aF0.0006165228113440197
aF0.0006165228113440197
aF0.0659679408138101
aF0.0006165228113440197
aF0.0006165228113440197
aF0.035758323057953144
aF0.01726263871763255
aF0.0018495684340320592
aF0.0006165228113440197
aF0.0006165228113440197
aF0.17262638717632553
aF0.0006165228113440197
aF0.0006165228113440197
aF0.006165228113440197
aF0.0030826140567200987
aF0.0006165228113440197
aF0.0030826140567200987
aF0.0006165228113440197
aF0.0006165228113440197
aF0.0012330456226880395
aF0.0006165228113440197
aF0.0006165228113440197
aF0.0006165228113440197
aF0.0018495684340320592
aF0.0006165228113440197
aF0.0006165228113440197
aF0.0006165228113440197
aF0.008014796547472256
aF0.0018495684340320592
aF0.0006165228113440197
aF0.0006165228113440197
aF0.010480887792848335
aa(lp52
F0.21435747556854506
aF0.21145766736688282
aF0.006541693305324687
aF0.08749657502968308
aF0.08103479769841995
aF0.014225043382957348
aF0.0016896520230158005
aF0.0003767467348616312
aF0.006827107498401681
aF0.13753539135994156
aF1.1416567723079733e-05
aF2.2833135446159466e-05
aF0.0009475751210156179
aF1.1416567723079733e-05
aF4.566627089231893e-05
aF0.0001369988126769568
aF1.1416567723079733e-05
aF0.01674810484975797
aF0.02012740889578957
aF0.0016554023198465614
aF0.0019636496483697143
aF7.991597406155813e-05
aF0.004418211708831857
aF0.003961548999908668
aF0.0002625810576308339
aF1.1416567723079733e-05
aF1.1416567723079733e-05
aF3.42497031692392e-05
aF7.991597406155813e-05
aF1.1416567723079733e-05
aF0.0015184035071696045
aF1.1416567723079733e-05
aF9.133254178463786e-05
aF1.1416567723079733e-05
aF0.009761165403233171
aF0.0010731573659694949
aF0.002694309982646817
aF0.0009475751210156179
aF0.00021691478673851493
aF1.1416567723079733e-05
aF1.1416567723079733e-05
aF0.001621152616677322
aF0.004463877979724176
aF1.1416567723079733e-05
aF1.1416567723079733e-05
aF3.42497031692392e-05
aF2.2833135446159466e-05
aF0.00015983194812311627
aF0.0002854141930769933
aF1.1416567723079733e-05
aF0.0007420769020001827
aF0.01029774408621792
aF1.1416567723079733e-05
aF1.1416567723079733e-05
aF0.0006735774956617042
aF1.1416567723079733e-05
aF1.1416567723079733e-05
aF1.1416567723079733e-05
aF1.1416567723079733e-05
aF0.0009247419855694584
aF4.566627089231893e-05
aF1.1416567723079733e-05
aF0.04739017261850397
aF1.1416567723079733e-05
aF1.1416567723079733e-05
aF1.1416567723079733e-05
aF0.000171248515846196
aF0.011850397296556764
aF2.2833135446159466e-05
aF1.1416567723079733e-05
aF1.1416567723079733e-05
aF1.1416567723079733e-05
aF0.013083386610649374
aF7.991597406155813e-05
aF6.84994063384784e-05
aF0.0013357384236003288
aF0.0001369988126769568
aF1.1416567723079733e-05
aF1.1416567723079733e-05
aF1.1416567723079733e-05
aF0.00018266508356927573
aF1.1416567723079733e-05
aF2.2833135446159466e-05
aF1.1416567723079733e-05
aF0.053646451730751665
aF6.84994063384784e-05
aF1.1416567723079733e-05
aF1.1416567723079733e-05
aF0.02396337565074436
aa(lp53
F0.001893939393939394
aF0.00615530303030303
aF0.0004734848484848485
aF0.010890151515151516
aF0.0014204545454545455
aF0.0004734848484848485
aF0.0004734848484848485
aF0.0004734848484848485
aF0.0004734848484848485
aF0.0004734848484848485
aF0.0004734848484848485
aF0.0004734848484848485
aF0.0004734848484848485
aF0.0004734848484848485
aF0.0004734848484848485
aF0.0004734848484848485
aF0.0004734848484848485
aF0.8854166666666666
aF0.0004734848484848485
aF0.0004734848484848485
aF0.0014204545454545455
aF0.0004734848484848485
aF0.0004734848484848485
aF0.0004734848484848485
aF0.0004734848484848485
aF0.0004734848484848485
aF0.0004734848484848485
aF0.0004734848484848485
aF0.0004734848484848485
aF0.0004734848484848485
aF0.0004734848484848485
aF0.0004734848484848485
aF0.0004734848484848485
aF0.0004734848484848485
aF0.0004734848484848485
aF0.0004734848484848485
aF0.0004734848484848485
aF0.0004734848484848485
aF0.000946969696969697
aF0.0004734848484848485
aF0.0004734848484848485
aF0.0004734848484848485
aF0.0004734848484848485
aF0.0004734848484848485
aF0.0004734848484848485
aF0.001893939393939394
aF0.0004734848484848485
aF0.0004734848484848485
aF0.0004734848484848485
aF0.0004734848484848485
aF0.0004734848484848485
aF0.0004734848484848485
aF0.0004734848484848485
aF0.0004734848484848485
aF0.0004734848484848485
aF0.0004734848484848485
aF0.0004734848484848485
aF0.0004734848484848485
aF0.0004734848484848485
aF0.0004734848484848485
aF0.0004734848484848485
aF0.0004734848484848485
aF0.0004734848484848485
aF0.0004734848484848485
aF0.0004734848484848485
aF0.0004734848484848485
aF0.0004734848484848485
aF0.0004734848484848485
aF0.0004734848484848485
aF0.0004734848484848485
aF0.0004734848484848485
aF0.0004734848484848485
aF0.0004734848484848485
aF0.0004734848484848485
aF0.0004734848484848485
aF0.0004734848484848485
aF0.001893939393939394
aF0.0004734848484848485
aF0.0004734848484848485
aF0.0004734848484848485
aF0.0004734848484848485
aF0.0004734848484848485
aF0.0004734848484848485
aF0.0004734848484848485
aF0.0004734848484848485
aF0.0004734848484848485
aF0.0004734848484848485
aF0.0004734848484848485
aF0.050662878787878785
aa(lp54
F0.018417590678443903
aF0.03526905970055754
aF6.264486625321055e-05
aF0.12102988160120279
aF0.1116331516632212
aF0.018041721480924637
aF0.00031322433126605275
aF0.0038213368414458434
aF0.00576332769529537
aF0.014658898703251268
aF6.264486625321055e-05
aF0.001816701121343106
aF0.0011902524588110004
aF6.264486625321055e-05
aF0.0024431497838752116
aF0.014470964104491637
aF6.264486625321055e-05
aF0.009709954269247634
aF0.004823654701497212
aF6.264486625321055e-05
aF0.00018793459875963165
aF6.264486625321055e-05
aF0.0002505794650128422
aF6.264486625321055e-05
aF0.02274008644991543
aF6.264486625321055e-05
aF6.264486625321055e-05
aF6.264486625321055e-05
aF6.264486625321055e-05
aF6.264486625321055e-05
aF0.01810436634717785
aF6.264486625321055e-05
aF6.264486625321055e-05
aF6.264486625321055e-05
aF0.0896448036083443
aF6.264486625321055e-05
aF6.264486625321055e-05
aF0.0015034767900770532
aF0.03063333959781996
aF6.264486625321055e-05
aF6.264486625321055e-05
aF0.007392094217878844
aF0.06803232475098665
aF6.264486625321055e-05
aF6.264486625321055e-05
aF0.004886299567750423
aF6.264486625321055e-05
aF6.264486625321055e-05
aF0.01591179602831548
aF6.264486625321055e-05
aF0.0001252897325064211
aF0.0009396729937981583
aF6.264486625321055e-05
aF6.264486625321055e-05
aF6.264486625321055e-05
aF6.264486625321055e-05
aF6.264486625321055e-05
aF6.264486625321055e-05
aF6.264486625321055e-05
aF0.019795777736014535
aF0.0005011589300256844
aF6.264486625321055e-05
aF0.059637912673056445
aF0.00018793459875963165
aF6.264486625321055e-05
aF6.264486625321055e-05
aF0.018981394474722798
aF0.19745661843011966
aF6.264486625321055e-05
aF6.264486625321055e-05
aF6.264486625321055e-05
aF6.264486625321055e-05
aF6.264486625321055e-05
aF0.005136879032763265
aF6.264486625321055e-05
aF6.264486625321055e-05
aF0.00018793459875963165
aF6.264486625321055e-05
aF0.0025684395163816324
aF6.264486625321055e-05
aF6.264486625321055e-05
aF6.264486625321055e-05
aF6.264486625321055e-05
aF6.264486625321055e-05
aF0.011777234855603584
aF0.0001252897325064211
aF6.264486625321055e-05
aF6.264486625321055e-05
aF0.056818893691661966
aa(lp55
F0.06653367754048345
aF0.12925369631541891
aF0.0017014785261675663
aF0.26689744191504344
aF0.12913635296878667
aF0.028279746538371276
aF0.002581553625909411
aF0.030098568411171086
aF0.008918094344050692
aF0.023409997653133067
aF0.0015254635062191973
aF0.00017601501994836893
aF0.0035789720722835014
aF0.0004107017132128608
aF0.0011147617930063365
aF0.0007040600797934757
aF5.867167331612298e-05
aF0.02405538605961042
aF0.005163107251818822
aF5.867167331612298e-05
aF0.0020535085660643043
aF0.0008800750997418447
aF0.005045763905186576
aF0.0004693733865289838
aF0.004283032152076977
aF0.0004107017132128608
aF5.867167331612298e-05
aF0.00011734334663224596
aF0.0009387467730579676
aF5.867167331612298e-05
aF0.005632480638347806
aF5.867167331612298e-05
aF5.867167331612298e-05
aF5.867167331612298e-05
aF0.07627317531095987
aF5.867167331612298e-05
aF0.0020535085660643043
aF0.0010560901196902137
aF0.004576390518657592
aF5.867167331612298e-05
aF5.867167331612298e-05
aF0.0038136587655479936
aF0.033560197136822345
aF5.867167331612298e-05
aF5.867167331612298e-05
aF0.0002346866932644919
aF5.867167331612298e-05
aF5.867167331612298e-05
aF0.0041070171321286085
aF5.867167331612298e-05
aF0.00011734334663224596
aF0.0007627317531095987
aF5.867167331612298e-05
aF5.867167331612298e-05
aF0.0013494484862708283
aF5.867167331612298e-05
aF5.867167331612298e-05
aF5.867167331612298e-05
aF5.867167331612298e-05
aF0.007451302511147618
aF0.00011734334663224596
aF5.867167331612298e-05
aF0.027517014785261674
aF0.0014081201595869514
aF5.867167331612298e-05
aF5.867167331612298e-05
aF0.005221778925134945
aF0.05955174841586482
aF0.00011734334663224596
aF5.867167331612298e-05
aF5.867167331612298e-05
aF0.00017601501994836893
aF5.867167331612298e-05
aF0.004517718845341469
aF5.867167331612298e-05
aF0.0008800750997418447
aF0.0012321051396385824
aF0.00011734334663224596
aF0.0002933583665806149
aF5.867167331612298e-05
aF0.0002933583665806149
aF5.867167331612298e-05
aF5.867167331612298e-05
aF0.0002933583665806149
aF0.002229523586012673
aF5.867167331612298e-05
aF5.867167331612298e-05
aF5.867167331612298e-05
aF0.015313306735508096
aa(lp56
F0.02453385672227674
aF0.0009813542688910696
aF0.0009813542688910696
aF0.014720314033366046
aF0.0009813542688910696
aF0.002944062806673209
aF0.0009813542688910696
aF0.0009813542688910696
aF0.0009813542688910696
aF0.004906771344455349
aF0.0009813542688910696
aF0.005888125613346418
aF0.0009813542688910696
aF0.0009813542688910696
aF0.0009813542688910696
aF0.005888125613346418
aF0.0009813542688910696
aF0.002944062806673209
aF0.018645731108930325
aF0.0009813542688910696
aF0.0009813542688910696
aF0.0009813542688910696
aF0.0009813542688910696
aF0.0009813542688910696
aF0.04317958783120707
aF0.0009813542688910696
aF0.0009813542688910696
aF0.0009813542688910696
aF0.0009813542688910696
aF0.0009813542688910696
aF0.05103042198233562
aF0.0009813542688910696
aF0.0009813542688910696
aF0.0009813542688910696
aF0.0009813542688910696
aF0.0009813542688910696
aF0.0009813542688910696
aF0.0009813542688910696
aF0.033366045142296366
aF0.0009813542688910696
aF0.0009813542688910696
aF0.0009813542688910696
aF0.0009813542688910696
aF0.0009813542688910696
aF0.0009813542688910696
aF0.002944062806673209
aF0.0009813542688910696
aF0.0009813542688910696
aF0.023552502453385672
aF0.0009813542688910696
aF0.0009813542688910696
aF0.0009813542688910696
aF0.0009813542688910696
aF0.0009813542688910696
aF0.0009813542688910696
aF0.0009813542688910696
aF0.0009813542688910696
aF0.0009813542688910696
aF0.0009813542688910696
aF0.03925417075564279
aF0.0009813542688910696
aF0.0009813542688910696
aF0.0549558390578999
aF0.0009813542688910696
aF0.0009813542688910696
aF0.0009813542688910696
aF0.02747791952894995
aF0.5368007850834151
aF0.0009813542688910696
aF0.0009813542688910696
aF0.0009813542688910696
aF0.0009813542688910696
aF0.0009813542688910696
aF0.02649656526005888
aF0.0009813542688910696
aF0.0009813542688910696
aF0.001962708537782139
aF0.0009813542688910696
aF0.010794896957801767
aF0.0009813542688910696
aF0.0009813542688910696
aF0.0009813542688910696
aF0.0009813542688910696
aF0.0009813542688910696
aF0.0009813542688910696
aF0.0009813542688910696
aF0.0009813542688910696
aF0.0009813542688910696
aF0.0009813542688910696
aa(lp57
F0.0051813471502590676
aF0.0051813471502590676
aF0.0051813471502590676
aF0.0051813471502590676
aF0.010362694300518135
aF0.0051813471502590676
aF0.0051813471502590676
aF0.0051813471502590676
aF0.0051813471502590676
aF0.0051813471502590676
aF0.0051813471502590676
aF0.0051813471502590676
aF0.0051813471502590676
aF0.0051813471502590676
aF0.0051813471502590676
aF0.0051813471502590676
aF0.0051813471502590676
aF0.0051813471502590676
aF0.0051813471502590676
aF0.0051813471502590676
aF0.0051813471502590676
aF0.0051813471502590676
aF0.0051813471502590676
aF0.0051813471502590676
aF0.0051813471502590676
aF0.0051813471502590676
aF0.0051813471502590676
aF0.0051813471502590676
aF0.0051813471502590676
aF0.0051813471502590676
aF0.06217616580310881
aF0.0051813471502590676
aF0.0051813471502590676
aF0.0051813471502590676
aF0.0051813471502590676
aF0.0051813471502590676
aF0.010362694300518135
aF0.0051813471502590676
aF0.0051813471502590676
aF0.0051813471502590676
aF0.0051813471502590676
aF0.0051813471502590676
aF0.0051813471502590676
aF0.0051813471502590676
aF0.0051813471502590676
aF0.0051813471502590676
aF0.0051813471502590676
aF0.0051813471502590676
aF0.0051813471502590676
aF0.0051813471502590676
aF0.0051813471502590676
aF0.0051813471502590676
aF0.0051813471502590676
aF0.0051813471502590676
aF0.0051813471502590676
aF0.0051813471502590676
aF0.0051813471502590676
aF0.0051813471502590676
aF0.0051813471502590676
aF0.02072538860103627
aF0.0051813471502590676
aF0.0051813471502590676
aF0.05699481865284974
aF0.0051813471502590676
aF0.0051813471502590676
aF0.0051813471502590676
aF0.0051813471502590676
aF0.0051813471502590676
aF0.0051813471502590676
aF0.0051813471502590676
aF0.0051813471502590676
aF0.0051813471502590676
aF0.0051813471502590676
aF0.0051813471502590676
aF0.0051813471502590676
aF0.0051813471502590676
aF0.0051813471502590676
aF0.0051813471502590676
aF0.0051813471502590676
aF0.0051813471502590676
aF0.0051813471502590676
aF0.0051813471502590676
aF0.0051813471502590676
aF0.0051813471502590676
aF0.0051813471502590676
aF0.0051813471502590676
aF0.0051813471502590676
aF0.0051813471502590676
aF0.40932642487046633
aa(lp58
F0.27849355797819625
aF0.13280475718533202
aF0.0044598612487611496
aF0.0019821605550049554
aF0.0019821605550049554
aF0.0004955401387512388
aF0.0004955401387512388
aF0.0004955401387512388
aF0.0004955401387512388
aF0.11694747274529237
aF0.0004955401387512388
aF0.0004955401387512388
aF0.0009910802775024777
aF0.0004955401387512388
aF0.0004955401387512388
aF0.0004955401387512388
aF0.0004955401387512388
aF0.06342913776015857
aF0.11298315163528246
aF0.0004955401387512388
aF0.0014866204162537165
aF0.0004955401387512388
aF0.002477700693756194
aF0.0004955401387512388
aF0.0004955401387512388
aF0.0004955401387512388
aF0.0004955401387512388
aF0.0004955401387512388
aF0.0004955401387512388
aF0.0004955401387512388
aF0.0004955401387512388
aF0.0004955401387512388
aF0.0004955401387512388
aF0.0004955401387512388
aF0.0019821605550049554
aF0.0004955401387512388
aF0.005946481665014866
aF0.003468780971258672
aF0.0004955401387512388
aF0.0004955401387512388
aF0.0004955401387512388
aF0.0004955401387512388
aF0.0009910802775024777
aF0.0004955401387512388
aF0.0004955401387512388
aF0.0004955401387512388
aF0.0004955401387512388
aF0.0004955401387512388
aF0.0004955401387512388
aF0.0004955401387512388
aF0.0014866204162537165
aF0.0004955401387512388
aF0.0004955401387512388
aF0.0004955401387512388
aF0.0004955401387512388
aF0.0004955401387512388
aF0.0004955401387512388
aF0.0004955401387512388
aF0.0004955401387512388
aF0.0004955401387512388
aF0.0004955401387512388
aF0.0004955401387512388
aF0.11298315163528246
aF0.0004955401387512388
aF0.0004955401387512388
aF0.0004955401387512388
aF0.0004955401387512388
aF0.0004955401387512388
aF0.0004955401387512388
aF0.0004955401387512388
aF0.0004955401387512388
aF0.0004955401387512388
aF0.0004955401387512388
aF0.0004955401387512388
aF0.0004955401387512388
aF0.0009910802775024777
aF0.0004955401387512388
aF0.0004955401387512388
aF0.0004955401387512388
aF0.0004955401387512388
aF0.0004955401387512388
aF0.0004955401387512388
aF0.0004955401387512388
aF0.0004955401387512388
aF0.0004955401387512388
aF0.0004955401387512388
aF0.0004955401387512388
aF0.0004955401387512388
aF0.11942517343904856
aa(lp59
F0.0005537098560354374
aF0.0005537098560354374
aF0.0005537098560354374
aF0.0005537098560354374
aF0.0005537098560354374
aF0.0005537098560354374
aF0.0005537098560354374
aF0.0005537098560354374
aF0.0005537098560354374
aF0.0005537098560354374
aF0.0005537098560354374
aF0.0005537098560354374
aF0.0005537098560354374
aF0.0005537098560354374
aF0.0005537098560354374
aF0.0005537098560354374
aF0.0005537098560354374
aF0.0005537098560354374
aF0.0005537098560354374
aF0.0005537098560354374
aF0.0005537098560354374
aF0.0005537098560354374
aF0.0005537098560354374
aF0.0005537098560354374
aF0.0005537098560354374
aF0.0005537098560354374
aF0.0005537098560354374
aF0.0005537098560354374
aF0.0005537098560354374
aF0.0005537098560354374
aF0.0005537098560354374
aF0.0005537098560354374
aF0.0005537098560354374
aF0.0005537098560354374
aF0.0005537098560354374
aF0.0005537098560354374
aF0.0005537098560354374
aF0.0005537098560354374
aF0.0005537098560354374
aF0.0005537098560354374
aF0.0005537098560354374
aF0.0005537098560354374
aF0.0005537098560354374
aF0.0005537098560354374
aF0.0005537098560354374
aF0.0005537098560354374
aF0.0005537098560354374
aF0.0005537098560354374
aF0.0005537098560354374
aF0.0005537098560354374
aF0.0005537098560354374
aF0.05813953488372093
aF0.0005537098560354374
aF0.0005537098560354374
aF0.0005537098560354374
aF0.0005537098560354374
aF0.0005537098560354374
aF0.0005537098560354374
aF0.0005537098560354374
aF0.0005537098560354374
aF0.0005537098560354374
aF0.0005537098560354374
aF0.0005537098560354374
aF0.0005537098560354374
aF0.0005537098560354374
aF0.0005537098560354374
aF0.0005537098560354374
aF0.017718715393133997
aF0.0005537098560354374
aF0.0005537098560354374
aF0.0016611295681063123
aF0.0005537098560354374
aF0.0005537098560354374
aF0.0005537098560354374
aF0.0005537098560354374
aF0.0005537098560354374
aF0.0005537098560354374
aF0.0005537098560354374
aF0.0005537098560354374
aF0.0005537098560354374
aF0.0005537098560354374
aF0.0005537098560354374
aF0.0005537098560354374
aF0.0005537098560354374
aF0.0005537098560354374
aF0.0005537098560354374
aF0.0005537098560354374
aF0.0005537098560354374
aF0.8754152823920266
aa(lp60
F0.0958438515731987
aF0.19899684865284034
aF0.00202940157402366
aF0.1722186473956013
aF0.16434852909633882
aF0.011945420647098616
aF0.007160652708343645
aF0.0015179263805705423
aF0.0030853503605075155
aF0.002788364764308931
aF4.949759936643073e-05
aF0.00036298239535382534
aF0.0030193535613522744
aF0.00014849279809929218
aF4.949759936643073e-05
aF0.08950815885429557
aF0.0004289791945090663
aF0.022224422115527397
aF0.011433945453645499
aF1.6499199788810244e-05
aF0.0074246399049646096
aF3.299839957762049e-05
aF0.001088947186061476
aF0.0005114751934531175
aF0.0013034367833160091
aF8.249599894405122e-05
aF1.6499199788810244e-05
aF6.599679915524098e-05
aF0.00013199359831048195
aF1.6499199788810244e-05
aF0.005609727928195482
aF8.249599894405122e-05
aF1.6499199788810244e-05
aF1.6499199788810244e-05
aF0.022026431718061675
aF0.0016499199788810243
aF0.002392383969377485
aF0.005626227127984293
aF0.05279743932419278
aF0.00011549439852167169
aF0.0002474879968321536
aF0.0005774719926083585
aF0.008035110297150589
aF3.299839957762049e-05
aF1.6499199788810244e-05
aF0.0007259647907076507
aF4.949759936643073e-05
aF0.010295500668217591
aF0.0036463231533270636
aF1.6499199788810244e-05
aF0.0010724479862726658
aF0.001831411176557937
aF0.00028048639640977413
aF3.299839957762049e-05
aF0.0006599679915524098
aF9.899519873286146e-05
aF1.6499199788810244e-05
aF1.6499199788810244e-05
aF1.6499199788810244e-05
aF4.949759936643073e-05
aF1.6499199788810244e-05
aF1.6499199788810244e-05
aF0.006154201521226221
aF1.6499199788810244e-05
aF1.6499199788810244e-05
aF1.6499199788810244e-05
aF0.0015179263805705423
aF0.04296391625006187
aF1.6499199788810244e-05
aF6.599679915524098e-05
aF1.6499199788810244e-05
aF3.299839957762049e-05
aF1.6499199788810244e-05
aF0.0011219455856390965
aF1.6499199788810244e-05
aF0.0008744575888069429
aF0.0008579583890181326
aF1.6499199788810244e-05
aF0.00011549439852167169
aF1.6499199788810244e-05
aF0.00028048639640977413
aF1.6499199788810244e-05
aF1.6499199788810244e-05
aF8.249599894405122e-05
aF0.0011384447854279067
aF8.249599894405122e-05
aF1.6499199788810244e-05
aF1.6499199788810244e-05
aF0.02856011483443053
aa(lp61
F0.000725689404934688
aF0.0021770682148040637
aF0.000725689404934688
aF0.05152394775036284
aF0.000725689404934688
aF0.04499274310595065
aF0.000725689404934688
aF0.000725689404934688
aF0.006531204644412192
aF0.02539912917271408
aF0.000725689404934688
aF0.000725689404934688
aF0.000725689404934688
aF0.000725689404934688
aF0.01451378809869376
aF0.009433962264150943
aF0.000725689404934688
aF0.000725689404934688
aF0.0043541364296081275
aF0.000725689404934688
aF0.000725689404934688
aF0.000725689404934688
aF0.010159651669085631
aF0.000725689404934688
aF0.005805515239477504
aF0.000725689404934688
aF0.000725689404934688
aF0.000725689404934688
aF0.000725689404934688
aF0.000725689404934688
aF0.04644412191582003
aF0.000725689404934688
aF0.000725689404934688
aF0.000725689404934688
aF0.000725689404934688
aF0.000725689404934688
aF0.001451378809869376
aF0.000725689404934688
aF0.033381712626995644
aF0.000725689404934688
aF0.000725689404934688
aF0.000725689404934688
aF0.000725689404934688
aF0.000725689404934688
aF0.000725689404934688
aF0.0050798258345428155
aF0.000725689404934688
aF0.000725689404934688
aF0.022496371552975326
aF0.000725689404934688
aF0.000725689404934688
aF0.013788098693759071
aF0.000725689404934688
aF0.000725689404934688
aF0.015239477503628448
aF0.000725689404934688
aF0.000725689404934688
aF0.000725689404934688
aF0.000725689404934688
aF0.008708272859216255
aF0.000725689404934688
aF0.000725689404934688
aF0.10014513788098693
aF0.000725689404934688
aF0.000725689404934688
aF0.000725689404934688
aF0.03991291727140784
aF0.45500725689404936
aF0.001451378809869376
aF0.000725689404934688
aF0.000725689404934688
aF0.000725689404934688
aF0.000725689404934688
aF0.005805515239477504
aF0.000725689404934688
aF0.000725689404934688
aF0.000725689404934688
aF0.000725689404934688
aF0.000725689404934688
aF0.000725689404934688
aF0.000725689404934688
aF0.000725689404934688
aF0.000725689404934688
aF0.000725689404934688
aF0.02104499274310595
aF0.000725689404934688
aF0.000725689404934688
aF0.000725689404934688
aF0.008708272859216255
aa(lp62
F0.18458371454711803
aF0.1303751143641354
aF0.0004574565416285453
aF0.17177493138151875
aF0.15233302836230558
aF0.021500457456541628
aF0.00022872827081427266
aF0.0016010978956999085
aF0.014181152790484904
aF0.00022872827081427266
aF0.00022872827081427266
aF0.00022872827081427266
aF0.00022872827081427266
aF0.00022872827081427266
aF0.00022872827081427266
aF0.00022872827081427266
aF0.00022872827081427266
aF0.0027447392497712718
aF0.0009149130832570906
aF0.00022872827081427266
aF0.00022872827081427266
aF0.00022872827081427266
aF0.00022872827081427266
aF0.00022872827081427266
aF0.0011436413540713633
aF0.00022872827081427266
aF0.00022872827081427266
aF0.00022872827081427266
aF0.00022872827081427266
aF0.00022872827081427266
aF0.00022872827081427266
aF0.00022872827081427266
aF0.00022872827081427266
aF0.00022872827081427266
aF0.1161939615736505
aF0.00022872827081427266
aF0.00022872827081427266
aF0.0006861848124428179
aF0.00022872827081427266
aF0.00022872827081427266
aF0.00022872827081427266
aF0.00022872827081427266
aF0.03545288197621226
aF0.00022872827081427266
aF0.00022872827081427266
aF0.00022872827081427266
aF0.00022872827081427266
aF0.00022872827081427266
aF0.00022872827081427266
aF0.00022872827081427266
aF0.00022872827081427266
aF0.0004574565416285453
aF0.00022872827081427266
aF0.00022872827081427266
aF0.0020585544373284536
aF0.00022872827081427266
aF0.00022872827081427266
aF0.00022872827081427266
aF0.00022872827081427266
aF0.00022872827081427266
aF0.00022872827081427266
aF0.00022872827081427266
aF0.0013723696248856359
aF0.00022872827081427266
aF0.00022872827081427266
aF0.00022872827081427266
aF0.00022872827081427266
aF0.0022872827081427266
aF0.00022872827081427266
aF0.00022872827081427266
aF0.00022872827081427266
aF0.00022872827081427266
aF0.00022872827081427266
aF0.00022872827081427266
aF0.00022872827081427266
aF0.00022872827081427266
aF0.00022872827081427266
aF0.00022872827081427266
aF0.00022872827081427266
aF0.00022872827081427266
aF0.00022872827081427266
aF0.00022872827081427266
aF0.00022872827081427266
aF0.00022872827081427266
aF0.00022872827081427266
aF0.00022872827081427266
aF0.00022872827081427266
aF0.00022872827081427266
aF0.1438700823421775
aa(lp63
F0.09576397658133394
aF0.14648146022270692
aF0.005292159338767076
aF0.21222592124899553
aF0.11278842842383194
aF0.0777293077717828
aF0.013901963035242796
aF0.00541843645964872
aF0.0047870508552405
aF0.0014694064975318563
aF2.2959476523935255e-05
aF0.0019171162897485938
aF0.009826655952244289
aF3.443921478590288e-05
aF0.002284467914131558
aF0.004752611640454598
aF5.739869130983814e-05
aF0.039191826426357476
aF0.008816438985191138
aF1.1479738261967628e-05
aF0.00633681552060613
aF0.00020663528871541729
aF0.020571690965445987
aF0.0032143267133509356
aF0.0017678796923430145
aF0.00013775685914361153
aF1.1479738261967628e-05
aF1.1479738261967628e-05
aF0.00011479738261967628
aF1.1479738261967628e-05
aF0.007461829870278958
aF1.1479738261967628e-05
aF3.443921478590288e-05
aF1.1479738261967628e-05
aF0.024405923544943177
aF0.0008954195844334749
aF0.0007232235105039606
aF0.0032487659281368385
aF0.008667202387785558
aF1.1479738261967628e-05
aF0.0001262771208816439
aF0.028331994030536104
aF0.01335093559866835
aF0.0005510274365744461
aF2.2959476523935255e-05
aF0.0063597749971300655
aF0.0002181150269773849
aF0.0038916312708070257
aF0.007243714843301573
aF9.183790609574102e-05
aF0.004213063942142119
aF0.00963150040179084
aF0.00016071633566754677
aF0.00018367581219148204
aF0.008380208931236368
aF0.00030995293307312593
aF4.591895304787051e-05
aF1.1479738261967628e-05
aF5.739869130983814e-05
aF0.01103202846975089
aF0.00026403398002525544
aF0.00018367581219148204
aF9.183790609574102e-05
aF1.1479738261967628e-05
aF1.1479738261967628e-05
aF1.1479738261967628e-05
aF0.002135231316725979
aF0.03355527493973137
aF8.035816783377339e-05
aF1.1479738261967628e-05
aF6.887842957180577e-05
aF0.00027551371828722307
aF1.1479738261967628e-05
aF0.0009528182757433131
aF1.1479738261967628e-05
aF0.0006658248191941223
aF0.006715646883251062
aF0.0010905751348869246
aF0.00022959476523935255
aF1.1479738261967628e-05
aF0.0014349672827459535
aF2.2959476523935255e-05
aF0.001538284927103662
aF0.00270921822982436
aF0.02557685684766387
aF0.00018367581219148204
aF1.1479738261967628e-05
aF1.1479738261967628e-05
aF0.007278154058087476
aa(lp64
F0.0054333061668024995
aF0.00027166530834012495
aF0.00027166530834012495
aF0.038033143167617495
aF0.00027166530834012495
aF0.0008149959250203749
aF0.00027166530834012495
aF0.00027166530834012495
aF0.00027166530834012495
aF0.002988318391741375
aF0.00027166530834012495
aF0.0024449877750611247
aF0.00027166530834012495
aF0.00027166530834012495
aF0.0008149959250203749
aF0.008421624558543873
aF0.00027166530834012495
aF0.032599837000814993
aF0.00027166530834012495
aF0.00027166530834012495
aF0.00027166530834012495
aF0.00027166530834012495
aF0.00027166530834012495
aF0.00027166530834012495
aF0.023091551208910623
aF0.00027166530834012495
aF0.00027166530834012495
aF0.00027166530834012495
aF0.00027166530834012495
aF0.00027166530834012495
aF0.16462917685411574
aF0.00027166530834012495
aF0.00027166530834012495
aF0.00027166530834012495
aF0.00027166530834012495
aF0.00027166530834012495
aF0.0019016571583808748
aF0.00027166530834012495
aF0.02526487367563162
aF0.00027166530834012495
aF0.00027166530834012495
aF0.00027166530834012495
aF0.00027166530834012495
aF0.00027166530834012495
aF0.00027166530834012495
aF0.012768269491985873
aF0.00027166530834012495
aF0.00027166530834012495
aF0.03151317576745449
aF0.00027166530834012495
aF0.00027166530834012495
aF0.008693289866883998
aF0.00027166530834012495
aF0.00027166530834012495
aF0.00027166530834012495
aF0.00027166530834012495
aF0.00027166530834012495
aF0.00027166530834012495
aF0.00027166530834012495
aF0.06302635153490899
aF0.00027166530834012495
aF0.00027166530834012495
aF0.0024449877750611247
aF0.00027166530834012495
aF0.00027166530834012495
aF0.00027166530834012495
aF0.04047813094267862
aF0.4919858734039663
aF0.00027166530834012495
aF0.00027166530834012495
aF0.00027166530834012495
aF0.00027166530834012495
aF0.00027166530834012495
aF0.0057049714751426246
aF0.00027166530834012495
aF0.00027166530834012495
aF0.0008149959250203749
aF0.00027166530834012495
aF0.0032599837000814994
aF0.00027166530834012495
aF0.00027166530834012495
aF0.00027166530834012495
aF0.00027166530834012495
aF0.00027166530834012495
aF0.008964955175224124
aF0.00027166530834012495
aF0.00027166530834012495
aF0.00027166530834012495
aF0.006248302091822874
aa(lp65
F0.09018036072144289
aF0.1186748496993988
aF0.000501002004008016
aF0.16595691382765532
aF0.11648296593186373
aF0.20547344689378758
aF0.002004008016032064
aF0.0026928857715430863
aF0.009018036072144289
aF0.0011898797595190382
aF6.2625250501002e-05
aF6.2625250501002e-05
aF0.002630260521042084
aF6.2625250501002e-05
aF6.2625250501002e-05
aF0.0019413827655310621
aF6.2625250501002e-05
aF0.036134769539078154
aF0.005511022044088177
aF6.2625250501002e-05
aF0.0015656312625250501
aF0.00031312625250501
aF0.05686372745490982
aF0.002567635270541082
aF0.005135270541082164
aF0.000187875751503006
aF6.2625250501002e-05
aF6.2625250501002e-05
aF0.000125250501002004
aF6.2625250501002e-05
aF0.0061372745490981965
aF6.2625250501002e-05
aF6.2625250501002e-05
aF6.2625250501002e-05
aF0.03795090180360722
aF6.2625250501002e-05
aF0.000187875751503006
aF0.0045090180360721445
aF0.00782815631262525
aF6.2625250501002e-05
aF6.2625250501002e-05
aF0.003256513026052104
aF0.027617735470941884
aF6.2625250501002e-05
aF6.2625250501002e-05
aF0.000814128256513026
aF0.000187875751503006
aF0.001064629258517034
aF0.005260521042084168
aF6.2625250501002e-05
aF0.002630260521042084
aF0.0026928857715430863
aF0.000125250501002004
aF6.2625250501002e-05
aF0.00043837675350701403
aF6.2625250501002e-05
aF6.2625250501002e-05
aF6.2625250501002e-05
aF6.2625250501002e-05
aF0.011147294589178357
aF0.00043837675350701403
aF6.2625250501002e-05
aF6.2625250501002e-05
aF6.2625250501002e-05
aF6.2625250501002e-05
aF6.2625250501002e-05
aF0.005511022044088177
aF0.02686623246492986
aF6.2625250501002e-05
aF6.2625250501002e-05
aF6.2625250501002e-05
aF0.000187875751503006
aF6.2625250501002e-05
aF0.00187875751503006
aF6.2625250501002e-05
aF6.2625250501002e-05
aF0.00043837675350701403
aF6.2625250501002e-05
aF0.000501002004008016
aF6.2625250501002e-05
aF0.000125250501002004
aF6.2625250501002e-05
aF0.00043837675350701403
aF6.2625250501002e-05
aF0.0006888777555110221
aF6.2625250501002e-05
aF6.2625250501002e-05
aF6.2625250501002e-05
aF0.023359218436873747
aa(lp66
F0.0008225375282747275
aF0.0022619782027555007
aF0.00020563438206868187
aF0.01192679415998355
aF0.008225375282747275
aF0.001645075056549455
aF0.00020563438206868187
aF0.0008225375282747275
aF0.001850709438618137
aF0.0014394406744807733
aF0.00020563438206868187
aF0.0006169031462060457
aF0.00020563438206868187
aF0.00020563438206868187
aF0.015833847419288505
aF0.003701418877236274
aF0.00020563438206868187
aF0.0022619782027555007
aF0.0010281719103434094
aF0.00020563438206868187
aF0.00020563438206868187
aF0.00020563438206868187
aF0.00020563438206868187
aF0.00020563438206868187
aF0.024059222702035782
aF0.00020563438206868187
aF0.00020563438206868187
aF0.00020563438206868187
aF0.00020563438206868187
aF0.00020563438206868187
aF0.03495784495167592
aF0.00020563438206868187
aF0.00020563438206868187
aF0.00020563438206868187
aF0.07752416203989307
aF0.00020563438206868187
aF0.00020563438206868187
aF0.0010281719103434094
aF0.012749331688258276
aF0.00020563438206868187
aF0.0006169031462060457
aF0.006169031462060457
aF0.012338062924120914
aF0.00020563438206868187
aF0.00020563438206868187
aF0.0010281719103434094
aF0.00020563438206868187
aF0.00020563438206868187
aF0.00987045033929673
aF0.00020563438206868187
aF0.00020563438206868187
aF0.0022619782027555007
aF0.0014394406744807733
aF0.00020563438206868187
aF0.00329015011309891
aF0.00020563438206868187
aF0.00020563438206868187
aF0.00020563438206868187
aF0.00020563438206868187
aF0.008225375282747275
aF0.0006169031462060457
aF0.00020563438206868187
aF0.13119473575981905
aF0.00041126876413736374
aF0.00020563438206868187
aF0.00020563438206868187
aF0.00658030022619782
aF0.319967098498869
aF0.00020563438206868187
aF0.00020563438206868187
aF0.00020563438206868187
aF0.00020563438206868187
aF0.00020563438206868187
aF0.007197203372403866
aF0.00020563438206868187
aF0.00020563438206868187
aF0.0008225375282747275
aF0.00020563438206868187
aF0.0012338062924120913
aF0.00020563438206868187
aF0.00041126876413736374
aF0.00020563438206868187
aF0.00020563438206868187
aF0.00020563438206868187
aF0.027760641579272053
aF0.00020563438206868187
aF0.00020563438206868187
aF0.00020563438206868187
aF0.2453218178079375
aa(lp67
F0.051432838607299546
aF0.1673667506767479
aF0.0028936805750023335
aF0.226080462988892
aF0.12816204611220014
aF0.010267898814524409
aF0.0191356296088864
aF0.04088490618874265
aF0.006347428358069635
aF0.00018668906935498925
aF9.334453467749463e-05
aF9.334453467749463e-05
aF0.09194436665733222
aF0.0002800336040324839
aF9.334453467749463e-05
aF9.334453467749463e-05
aF9.334453467749463e-05
aF0.003733781387099785
aF0.001493512554839914
aF9.334453467749463e-05
aF0.02277606646130869
aF9.334453467749463e-05
aF0.004013814991132269
aF9.334453467749463e-05
aF0.001773546158872398
aF0.0014001680201624195
aF9.334453467749463e-05
aF0.00018668906935498925
aF0.00784094091290955
aF9.334453467749463e-05
aF0.0028936805750023335
aF9.334453467749463e-05
aF9.334453467749463e-05
aF9.334453467749463e-05
aF0.008961075329039486
aF9.334453467749463e-05
aF0.0015868570895174088
aF0.12265471856622795
aF0.001773546158872398
aF9.334453467749463e-05
aF9.334453467749463e-05
aF0.0002800336040324839
aF0.0015868570895174088
aF9.334453467749463e-05
aF9.334453467749463e-05
aF0.0005600672080649678
aF9.334453467749463e-05
aF9.334453467749463e-05
aF9.334453467749463e-05
aF9.334453467749463e-05
aF0.00018668906935498925
aF9.334453467749463e-05
aF9.334453467749463e-05
aF9.334453467749463e-05
aF9.334453467749463e-05
aF9.334453467749463e-05
aF9.334453467749463e-05
aF9.334453467749463e-05
aF9.334453467749463e-05
aF0.0005600672080649678
aF9.334453467749463e-05
aF9.334453467749463e-05
aF0.001773546158872398
aF9.334453467749463e-05
aF9.334453467749463e-05
aF9.334453467749463e-05
aF9.334453467749463e-05
aF0.004293848595164753
aF9.334453467749463e-05
aF9.334453467749463e-05
aF9.334453467749463e-05
aF9.334453467749463e-05
aF9.334453467749463e-05
aF9.334453467749463e-05
aF0.00046672267338747315
aF0.05311304023149445
aF9.334453467749463e-05
aF9.334453467749463e-05
aF9.334453467749463e-05
aF9.334453467749463e-05
aF9.334453467749463e-05
aF9.334453467749463e-05
aF9.334453467749463e-05
aF9.334453467749463e-05
aF0.0008401008120974517
aF9.334453467749463e-05
aF9.334453467749463e-05
aF9.334453467749463e-05
aF0.005320638476617194
aa(lp68
F0.08524006633678051
aF0.04883573556972778
aF0.0023325737861852307
aF0.0893793735758491
aF0.09594563619938787
aF0.01012579718742837
aF0.004476384375800558
aF0.0037617808459287825
aF0.0024674046408780185
aF0.0034247037091968127
aF1.348308546927879e-05
aF0.00289886337589494
aF0.001213477692235091
aF5.393234187711516e-05
aF0.00590559143554411
aF0.044291935766580824
aF0.00024269553844701822
aF0.03064705327167069
aF0.004247171922822819
aF0.0009168498119109577
aF0.0026831340083864792
aF0.00018876319656990306
aF0.002184259846023164
aF0.001280893119581485
aF0.0018471827092911943
aF0.00014831394016206668
aF1.348308546927879e-05
aF1.348308546927879e-05
aF0.00021572936750846063
aF1.348308546927879e-05
aF0.02753246052826729
aF1.348308546927879e-05
aF0.00012134776922350911
aF1.348308546927879e-05
aF0.015114538811061524
aF4.044925640783637e-05
aF0.004638181401431903
aF0.0035460514784203217
aF0.00768535871748891
aF1.348308546927879e-05
aF1.348308546927879e-05
aF0.0030471773160570064
aF0.011622419674518316
aF1.348308546927879e-05
aF1.348308546927879e-05
aF0.001860665794760473
aF1.348308546927879e-05
aF0.0030336942305877277
aF0.003923577871560128
aF2.696617093855758e-05
aF0.0006337050170561031
aF0.05022449337306349
aF0.0028314479485485457
aF1.348308546927879e-05
aF0.029838068143513963
aF0.0005932557606482667
aF0.0005797726751789879
aF1.348308546927879e-05
aF1.348308546927879e-05
aF0.020804400879097174
aF0.0001348308546927879
aF1.348308546927879e-05
aF0.030242560707592327
aF0.0002831447948548546
aF1.348308546927879e-05
aF1.348308546927879e-05
aF0.01136624105060202
aF0.0008764005555031213
aF1.348308546927879e-05
aF1.348308546927879e-05
aF1.348308546927879e-05
aF1.348308546927879e-05
aF0.00043145873501692126
aF0.0002831447948548546
aF1.348308546927879e-05
aF0.00020224628203918186
aF0.001024714495665188
aF1.348308546927879e-05
aF0.00012134776922350911
aF1.348308546927879e-05
aF1.348308546927879e-05
aF1.348308546927879e-05
aF0.00035056022220124854
aF0.00021572936750846063
aF0.281809969393396
aF0.004692113743309019
aF0.00029662788032413335
aF1.348308546927879e-05
aF0.03465152965604649
aa(lp69
F0.0609164842039412
aF0.04934313418830153
aF0.0050828902095714735
aF0.1202690021895527
aF0.4695808570534876
aF0.008054426024397873
aF0.0014075695964967157
aF0.0023459493274945262
aF0.004379105411323116
aF0.001954957772912105
aF7.819831091648421e-05
aF0.0028151391929934315
aF0.005630278385986863
aF7.819831091648421e-05
aF7.819831091648421e-05
aF0.006725054738817642
aF7.819831091648421e-05
aF0.02009696590553644
aF0.002580544260243979
aF0.03722239599624648
aF0.005004691898654989
aF0.00031279324366593683
aF0.0027369408820769473
aF7.819831091648421e-05
aF0.004770096965905537
aF7.819831091648421e-05
aF7.819831091648421e-05
aF0.00015639662183296842
aF0.0005473881764153895
aF7.819831091648421e-05
aF0.03737879261807945
aF7.819831091648421e-05
aF7.819831091648421e-05
aF7.819831091648421e-05
aF0.024476071316859555
aF0.00015639662183296842
aF0.005317485142320926
aF0.013919299343134189
aF0.0118861432593056
aF7.819831091648421e-05
aF7.819831091648421e-05
aF0.00039099155458242104
aF0.023224898342195807
aF7.819831091648421e-05
aF7.819831091648421e-05
aF0.00015639662183296842
aF7.819831091648421e-05
aF7.819831091648421e-05
aF0.004379105411323116
aF7.819831091648421e-05
aF7.819831091648421e-05
aF0.002658742571160463
aF7.819831091648421e-05
aF7.819831091648421e-05
aF0.0006255864873318737
aF7.819831091648421e-05
aF7.819831091648421e-05
aF7.819831091648421e-05
aF7.819831091648421e-05
aF0.014935877385048483
aF0.00015639662183296842
aF7.819831091648421e-05
aF0.023224898342195807
aF7.819831091648421e-05
aF7.819831091648421e-05
aF7.819831091648421e-05
aF0.008445417578980294
aF7.819831091648421e-05
aF7.819831091648421e-05
aF7.819831091648421e-05
aF7.819831091648421e-05
aF7.819831091648421e-05
aF7.819831091648421e-05
aF7.819831091648421e-05
aF7.819831091648421e-05
aF7.819831091648421e-05
aF0.00015639662183296842
aF7.819831091648421e-05
aF7.819831091648421e-05
aF7.819831091648421e-05
aF7.819831091648421e-05
aF7.819831091648421e-05
aF0.00023459493274945262
aF0.0007037847982483579
aF0.0036753206130747578
aF7.819831091648421e-05
aF7.819831091648421e-05
aF7.819831091648421e-05
aF0.00836721926806381
aa(lp70
F0.07244843997884717
aF0.05552617662612375
aF0.0005288207297726071
aF0.2506610259122158
aF0.38498149127445797
aF0.008461131676361713
aF0.0005288207297726071
aF0.0005288207297726071
aF0.008461131676361713
aF0.028027498677948175
aF0.0005288207297726071
aF0.0005288207297726071
aF0.0005288207297726071
aF0.0005288207297726071
aF0.0005288207297726071
aF0.0005288207297726071
aF0.0005288207297726071
aF0.013749338974087784
aF0.0031729243786356425
aF0.0005288207297726071
aF0.0005288207297726071
aF0.0005288207297726071
aF0.0005288207297726071
aF0.0005288207297726071
aF0.0015864621893178213
aF0.0005288207297726071
aF0.0005288207297726071
aF0.0005288207297726071
aF0.0005288207297726071
aF0.0005288207297726071
aF0.0005288207297726071
aF0.0005288207297726071
aF0.0005288207297726071
aF0.0005288207297726071
aF0.03860391327340032
aF0.0005288207297726071
aF0.0005288207297726071
aF0.0005288207297726071
aF0.0005288207297726071
aF0.0005288207297726071
aF0.0005288207297726071
aF0.0005288207297726071
aF0.01639344262295082
aF0.0005288207297726071
aF0.0005288207297726071
aF0.0005288207297726071
aF0.0005288207297726071
aF0.0005288207297726071
aF0.0005288207297726071
aF0.0005288207297726071
aF0.0005288207297726071
aF0.0005288207297726071
aF0.0005288207297726071
aF0.0005288207297726071
aF0.0005288207297726071
aF0.0005288207297726071
aF0.0005288207297726071
aF0.0005288207297726071
aF0.0005288207297726071
aF0.0005288207297726071
aF0.0005288207297726071
aF0.0005288207297726071
aF0.02009518773135907
aF0.0005288207297726071
aF0.0005288207297726071
aF0.0005288207297726071
aF0.0005288207297726071
aF0.0005288207297726071
aF0.0005288207297726071
aF0.0005288207297726071
aF0.0005288207297726071
aF0.0005288207297726071
aF0.0005288207297726071
aF0.0005288207297726071
aF0.0005288207297726071
aF0.0005288207297726071
aF0.0005288207297726071
aF0.0005288207297726071
aF0.0005288207297726071
aF0.0005288207297726071
aF0.0005288207297726071
aF0.0005288207297726071
aF0.0005288207297726071
aF0.0005288207297726071
aF0.0005288207297726071
aF0.0005288207297726071
aF0.0005288207297726071
aF0.0005288207297726071
aF0.05817028027498678
aa(lp71
F0.0012406947890818859
aF0.0012406947890818859
aF0.0012406947890818859
aF0.0012406947890818859
aF0.0012406947890818859
aF0.0012406947890818859
aF0.0012406947890818859
aF0.0012406947890818859
aF0.0012406947890818859
aF0.03722084367245657
aF0.0012406947890818859
aF0.0012406947890818859
aF0.0012406947890818859
aF0.0012406947890818859
aF0.0012406947890818859
aF0.01240694789081886
aF0.0012406947890818859
aF0.022332506203473945
aF0.0012406947890818859
aF0.0012406947890818859
aF0.0012406947890818859
aF0.0012406947890818859
aF0.0012406947890818859
aF0.0012406947890818859
aF0.02729528535980149
aF0.0012406947890818859
aF0.0012406947890818859
aF0.0012406947890818859
aF0.0012406947890818859
aF0.0012406947890818859
aF0.033498759305210915
aF0.0012406947890818859
aF0.0012406947890818859
aF0.0012406947890818859
aF0.0012406947890818859
aF0.0012406947890818859
aF0.0024813895781637717
aF0.0037220843672456576
aF0.038461538461538464
aF0.0012406947890818859
aF0.0012406947890818859
aF0.0012406947890818859
aF0.0012406947890818859
aF0.0012406947890818859
aF0.0012406947890818859
aF0.0012406947890818859
aF0.0012406947890818859
aF0.0012406947890818859
aF0.08684863523573201
aF0.0012406947890818859
aF0.0012406947890818859
aF0.022332506203473945
aF0.0012406947890818859
aF0.0012406947890818859
aF0.05831265508684864
aF0.0012406947890818859
aF0.0012406947890818859
aF0.0012406947890818859
aF0.0012406947890818859
aF0.2866004962779156
aF0.0012406947890818859
aF0.0012406947890818859
aF0.10049627791563276
aF0.0012406947890818859
aF0.016129032258064516
aF0.0012406947890818859
aF0.08684863523573201
aF0.0037220843672456576
aF0.0012406947890818859
aF0.0012406947890818859
aF0.0012406947890818859
aF0.0012406947890818859
aF0.0012406947890818859
aF0.008684863523573201
aF0.0012406947890818859
aF0.0012406947890818859
aF0.0037220843672456576
aF0.0012406947890818859
aF0.0012406947890818859
aF0.0012406947890818859
aF0.0012406947890818859
aF0.0012406947890818859
aF0.0012406947890818859
aF0.0012406947890818859
aF0.05707196029776675
aF0.0012406947890818859
aF0.0012406947890818859
aF0.0012406947890818859
aF0.00620347394540943
aa(lp72
F0.006523157208088715
aF0.0006523157208088715
aF0.0006523157208088715
aF0.09197651663405088
aF0.0006523157208088715
aF0.0019569471624266144
aF0.0006523157208088715
aF0.0006523157208088715
aF0.0006523157208088715
aF0.011089367253750815
aF0.0006523157208088715
aF0.0006523157208088715
aF0.0006523157208088715
aF0.0006523157208088715
aF0.0006523157208088715
aF0.037834311806914545
aF0.0006523157208088715
aF0.0032615786040443573
aF0.005218525766470972
aF0.0006523157208088715
aF0.0006523157208088715
aF0.0006523157208088715
aF0.0006523157208088715
aF0.0006523157208088715
aF0.033268101761252444
aF0.0006523157208088715
aF0.0006523157208088715
aF0.0006523157208088715
aF0.0006523157208088715
aF0.0006523157208088715
aF0.08088714938030006
aF0.0006523157208088715
aF0.0006523157208088715
aF0.0006523157208088715
aF0.0006523157208088715
aF0.0006523157208088715
aF0.003913894324853229
aF0.0006523157208088715
aF0.07566862361382909
aF0.0006523157208088715
aF0.0006523157208088715
aF0.0006523157208088715
aF0.006523157208088715
aF0.0006523157208088715
aF0.0006523157208088715
aF0.003913894324853229
aF0.0006523157208088715
aF0.0006523157208088715
aF0.037834311806914545
aF0.0006523157208088715
aF0.0006523157208088715
aF0.05805609915198956
aF0.0006523157208088715
aF0.0006523157208088715
aF0.0228310502283105
aF0.0006523157208088715
aF0.0006523157208088715
aF0.0006523157208088715
aF0.0006523157208088715
aF0.1917808219178082
aF0.001304631441617743
aF0.0006523157208088715
aF0.13568166992824526
aF0.0006523157208088715
aF0.0019569471624266144
aF0.0006523157208088715
aF0.10893672537508153
aF0.0006523157208088715
aF0.0006523157208088715
aF0.0006523157208088715
aF0.0006523157208088715
aF0.0006523157208088715
aF0.0006523157208088715
aF0.003913894324853229
aF0.0006523157208088715
aF0.0006523157208088715
aF0.0019569471624266144
aF0.0006523157208088715
aF0.0006523157208088715
aF0.0006523157208088715
aF0.0006523157208088715
aF0.0006523157208088715
aF0.0006523157208088715
aF0.0006523157208088715
aF0.018917155903457272
aF0.0006523157208088715
aF0.0006523157208088715
aF0.0006523157208088715
aF0.01304631441617743
aa(lp73
F0.00010837758751490192
aF0.00010837758751490192
aF0.00010837758751490192
aF0.00010837758751490192
aF0.00010837758751490192
aF0.00010837758751490192
aF0.00010837758751490192
aF0.00010837758751490192
aF0.00010837758751490192
aF0.00010837758751490192
aF0.00010837758751490192
aF0.00010837758751490192
aF0.00010837758751490192
aF0.00010837758751490192
aF0.00010837758751490192
aF0.00010837758751490192
aF0.00010837758751490192
aF0.02709439687872548
aF0.00010837758751490192
aF0.00010837758751490192
aF0.00010837758751490192
aF0.00010837758751490192
aF0.00010837758751490192
aF0.00010837758751490192
aF0.00010837758751490192
aF0.00010837758751490192
aF0.00010837758751490192
aF0.00010837758751490192
aF0.00010837758751490192
aF0.00010837758751490192
aF0.008236696651132545
aF0.00010837758751490192
aF0.00010837758751490192
aF0.00010837758751490192
aF0.00010837758751490192
aF0.00010837758751490192
aF0.00010837758751490192
aF0.00010837758751490192
aF0.00010837758751490192
aF0.00010837758751490192
aF0.00010837758751490192
aF0.00010837758751490192
aF0.00010837758751490192
aF0.00010837758751490192
aF0.00010837758751490192
aF0.00010837758751490192
aF0.00010837758751490192
aF0.00010837758751490192
aF0.00010837758751490192
aF0.00010837758751490192
aF0.00010837758751490192
aF0.00010837758751490192
aF0.00010837758751490192
aF0.00010837758751490192
aF0.00010837758751490192
aF0.00010837758751490192
aF0.00010837758751490192
aF0.00010837758751490192
aF0.00010837758751490192
aF0.00010837758751490192
aF0.00010837758751490192
aF0.00010837758751490192
aF0.00010837758751490192
aF0.00010837758751490192
aF0.00010837758751490192
aF0.00010837758751490192
aF0.00010837758751490192
aF0.00010837758751490192
aF0.00010837758751490192
aF0.00010837758751490192
aF0.00010837758751490192
aF0.00010837758751490192
aF0.00010837758751490192
aF0.00010837758751490192
aF0.00010837758751490192
aF0.00010837758751490192
aF0.00010837758751490192
aF0.00010837758751490192
aF0.00010837758751490192
aF0.00010837758751490192
aF0.00010837758751490192
aF0.00010837758751490192
aF0.00010837758751490192
aF0.00010837758751490192
aF0.00010837758751490192
aF0.00010837758751490192
aF0.00010837758751490192
aF0.00010837758751490192
aF0.9553484339438604
aa(lp74
F0.055657436273610854
aF0.1681643132220796
aF0.0017421602787456446
aF0.23344947735191637
aF0.14074821199339813
aF0.008160645516229598
aF0.013478818998716302
aF0.023106546854942234
aF0.005409866128736476
aF0.02035576746744911
aF0.0002750779387493123
aF0.00036677058499908307
aF0.0022923161562442692
aF0.00018338529249954154
aF9.169264624977077e-05
aF0.0024757014487438106
aF9.169264624977077e-05
aF0.021181001283697046
aF0.0045846323124885385
aF0.006693563176233266
aF0.0011003117549972493
aF9.169264624977077e-05
aF0.030166880616174584
aF0.00036677058499908307
aF9.169264624977077e-05
aF0.00018338529249954154
aF0.00018338529249954154
aF9.169264624977077e-05
aF9.169264624977077e-05
aF9.169264624977077e-05
aF0.04667155694113332
aF9.169264624977077e-05
aF9.169264624977077e-05
aF9.169264624977077e-05
aF0.0439207775536402
aF9.169264624977077e-05
aF0.0009169264624977076
aF0.0007335411699981661
aF0.011094810196222262
aF9.169264624977077e-05
aF0.00018338529249954154
aF0.0025673940949935813
aF0.03649367320740877
aF9.169264624977077e-05
aF9.169264624977077e-05
aF0.000825233816247937
aF9.169264624977077e-05
aF9.169264624977077e-05
aF0.005868329359985329
aF9.169264624977077e-05
aF0.0004584632312488538
aF0.003117549972492206
aF9.169264624977077e-05
aF9.169264624977077e-05
aF0.0026590867412433525
aF9.169264624977077e-05
aF9.169264624977077e-05
aF9.169264624977077e-05
aF9.169264624977077e-05
aF0.035393361452411516
aF9.169264624977077e-05
aF9.169264624977077e-05
aF0.03300935264991748
aF9.169264624977077e-05
aF9.169264624977077e-05
aF9.169264624977077e-05
aF0.009169264624977077
aF9.169264624977077e-05
aF9.169264624977077e-05
aF9.169264624977077e-05
aF9.169264624977077e-05
aF9.169264624977077e-05
aF9.169264624977077e-05
aF9.169264624977077e-05
aF0.0004584632312488538
aF0.00036677058499908307
aF0.0009169264624977076
aF9.169264624977077e-05
aF0.00018338529249954154
aF9.169264624977077e-05
aF9.169264624977077e-05
aF9.169264624977077e-05
aF0.004126169081239685
aF9.169264624977077e-05
aF0.005043095543737392
aF9.169264624977077e-05
aF9.169264624977077e-05
aF9.169264624977077e-05
aF0.011553273427471117
aa(lp75
F0.009523809523809525
aF0.009523809523809525
aF0.009523809523809525
aF0.009523809523809525
aF0.009523809523809525
aF0.009523809523809525
aF0.009523809523809525
aF0.009523809523809525
aF0.009523809523809525
aF0.009523809523809525
aF0.009523809523809525
aF0.009523809523809525
aF0.009523809523809525
aF0.009523809523809525
aF0.009523809523809525
aF0.009523809523809525
aF0.009523809523809525
aF0.009523809523809525
aF0.009523809523809525
aF0.009523809523809525
aF0.009523809523809525
aF0.009523809523809525
aF0.009523809523809525
aF0.009523809523809525
aF0.009523809523809525
aF0.009523809523809525
aF0.009523809523809525
aF0.009523809523809525
aF0.009523809523809525
aF0.009523809523809525
aF0.009523809523809525
aF0.009523809523809525
aF0.009523809523809525
aF0.009523809523809525
aF0.009523809523809525
aF0.009523809523809525
aF0.009523809523809525
aF0.009523809523809525
aF0.009523809523809525
aF0.009523809523809525
aF0.009523809523809525
aF0.1619047619047619
aF0.009523809523809525
aF0.009523809523809525
aF0.009523809523809525
aF0.009523809523809525
aF0.009523809523809525
aF0.009523809523809525
aF0.009523809523809525
aF0.009523809523809525
aF0.009523809523809525
aF0.009523809523809525
aF0.009523809523809525
aF0.009523809523809525
aF0.009523809523809525
aF0.009523809523809525
aF0.009523809523809525
aF0.009523809523809525
aF0.009523809523809525
aF0.009523809523809525
aF0.009523809523809525
aF0.009523809523809525
aF0.009523809523809525
aF0.009523809523809525
aF0.009523809523809525
aF0.009523809523809525
aF0.009523809523809525
aF0.009523809523809525
aF0.009523809523809525
aF0.009523809523809525
aF0.009523809523809525
aF0.009523809523809525
aF0.009523809523809525
aF0.009523809523809525
aF0.009523809523809525
aF0.009523809523809525
aF0.009523809523809525
aF0.009523809523809525
aF0.009523809523809525
aF0.009523809523809525
aF0.009523809523809525
aF0.009523809523809525
aF0.009523809523809525
aF0.009523809523809525
aF0.009523809523809525
aF0.009523809523809525
aF0.009523809523809525
aF0.009523809523809525
aF0.009523809523809525
aa(lp76
F0.0004438526409232135
aF0.0004438526409232135
aF0.0004438526409232135
aF0.0004438526409232135
aF0.0004438526409232135
aF0.0004438526409232135
aF0.0004438526409232135
aF0.0004438526409232135
aF0.0004438526409232135
aF0.05148690634709276
aF0.002663115845539281
aF0.0004438526409232135
aF0.0004438526409232135
aF0.0004438526409232135
aF0.0004438526409232135
aF0.0004438526409232135
aF0.0004438526409232135
aF0.0004438526409232135
aF0.0004438526409232135
aF0.0004438526409232135
aF0.0004438526409232135
aF0.0004438526409232135
aF0.0004438526409232135
aF0.0004438526409232135
aF0.0004438526409232135
aF0.0004438526409232135
aF0.0004438526409232135
aF0.0004438526409232135
aF0.0004438526409232135
aF0.0004438526409232135
aF0.0004438526409232135
aF0.0004438526409232135
aF0.0004438526409232135
aF0.0004438526409232135
aF0.0004438526409232135
aF0.0004438526409232135
aF0.0004438526409232135
aF0.0004438526409232135
aF0.0004438526409232135
aF0.0004438526409232135
aF0.0004438526409232135
aF0.35641367066134044
aF0.0004438526409232135
aF0.000887705281846427
aF0.0004438526409232135
aF0.001775410563692854
aF0.0004438526409232135
aF0.0004438526409232135
aF0.0039946737683089215
aF0.0004438526409232135
aF0.0004438526409232135
aF0.0031069684864624943
aF0.0004438526409232135
aF0.000887705281846427
aF0.4216600088770528
aF0.006213936972924989
aF0.0004438526409232135
aF0.0004438526409232135
aF0.0004438526409232135
aF0.007545494895694629
aF0.0004438526409232135
aF0.0004438526409232135
aF0.02130492676431425
aF0.0004438526409232135
aF0.002663115845539281
aF0.0013315579227696406
aF0.0004438526409232135
aF0.0004438526409232135
aF0.0004438526409232135
aF0.0004438526409232135
aF0.0004438526409232135
aF0.0004438526409232135
aF0.0004438526409232135
aF0.0004438526409232135
aF0.0004438526409232135
aF0.0004438526409232135
aF0.0004438526409232135
aF0.000887705281846427
aF0.0004438526409232135
aF0.0004438526409232135
aF0.0004438526409232135
aF0.0004438526409232135
aF0.0004438526409232135
aF0.0004438526409232135
aF0.08433200177541056
aF0.000887705281846427
aF0.0004438526409232135
aF0.0004438526409232135
aF0.0004438526409232135
aa(lp77
F0.0747652077834387
aF0.19157817199680804
aF0.0026394941992511204
aF0.26554539316186854
aF0.15450248603523417
aF0.006261125774967773
aF0.001657356822785587
aF0.0028850285433675033
aF0.004726536124240378
aF0.005770057086735007
aF0.00012276717205819164
aF0.00012276717205819164
aF0.0004910686882327666
aF0.00018415075808728745
aF0.00012276717205819164
aF6.138358602909582e-05
aF6.138358602909582e-05
aF0.0058314406727641025
aF0.0065680437051132525
aF6.138358602909582e-05
aF0.00896200356024799
aF6.138358602909582e-05
aF0.00896200356024799
aF6.138358602909582e-05
aF0.00018415075808728745
aF0.002393959855134737
aF6.138358602909582e-05
aF6.138358602909582e-05
aF0.006322509360996869
aF6.138358602909582e-05
aF0.0013504388926401081
aF6.138358602909582e-05
aF6.138358602909582e-05
aF6.138358602909582e-05
aF0.19716407832545577
aF0.002087041924989258
aF6.138358602909582e-05
aF0.007857099011724265
aF6.138358602909582e-05
aF6.138358602909582e-05
aF6.138358602909582e-05
aF0.0004910686882327666
aF0.014179608372721135
aF0.00012276717205819164
aF6.138358602909582e-05
aF0.0003069179301454791
aF6.138358602909582e-05
aF6.138358602909582e-05
aF6.138358602909582e-05
aF6.138358602909582e-05
aF0.003744398747774845
aF0.0004910686882327666
aF6.138358602909582e-05
aF6.138358602909582e-05
aF0.00042968510220367073
aF6.138358602909582e-05
aF6.138358602909582e-05
aF6.138358602909582e-05
aF6.138358602909582e-05
aF0.0003069179301454791
aF6.138358602909582e-05
aF6.138358602909582e-05
aF0.0042968510220367075
aF6.138358602909582e-05
aF6.138358602909582e-05
aF6.138358602909582e-05
aF6.138358602909582e-05
aF0.0025781106132220246
aF6.138358602909582e-05
aF6.138358602909582e-05
aF6.138358602909582e-05
aF6.138358602909582e-05
aF6.138358602909582e-05
aF0.00012276717205819164
aF6.138358602909582e-05
aF0.0006138358602909582
aF6.138358602909582e-05
aF6.138358602909582e-05
aF0.00012276717205819164
aF6.138358602909582e-05
aF0.0005524522742618624
aF6.138358602909582e-05
aF6.138358602909582e-05
aF6.138358602909582e-05
aF0.0003683015161745749
aF6.138358602909582e-05
aF6.138358602909582e-05
aF6.138358602909582e-05
aF0.009330305076422565
aa(lp78
F0.0004664179104477612
aF0.0004664179104477612
aF0.0004664179104477612
aF0.0018656716417910447
aF0.0004664179104477612
aF0.0004664179104477612
aF0.0004664179104477612
aF0.0004664179104477612
aF0.0004664179104477612
aF0.04897388059701493
aF0.0004664179104477612
aF0.0004664179104477612
aF0.0004664179104477612
aF0.0004664179104477612
aF0.0004664179104477612
aF0.0013992537313432835
aF0.0004664179104477612
aF0.0009328358208955224
aF0.0004664179104477612
aF0.0004664179104477612
aF0.0004664179104477612
aF0.0004664179104477612
aF0.0004664179104477612
aF0.0004664179104477612
aF0.0032649253731343282
aF0.0004664179104477612
aF0.0004664179104477612
aF0.0004664179104477612
aF0.0004664179104477612
aF0.0004664179104477612
aF0.3162313432835821
aF0.0004664179104477612
aF0.0004664179104477612
aF0.0004664179104477612
aF0.0004664179104477612
aF0.0004664179104477612
aF0.0004664179104477612
aF0.0004664179104477612
aF0.005597014925373134
aF0.0004664179104477612
aF0.0004664179104477612
aF0.0004664179104477612
aF0.0009328358208955224
aF0.0004664179104477612
aF0.0004664179104477612
aF0.0032649253731343282
aF0.0004664179104477612
aF0.0004664179104477612
aF0.005130597014925373
aF0.0004664179104477612
aF0.0004664179104477612
aF0.0018656716417910447
aF0.0004664179104477612
aF0.0004664179104477612
aF0.0032649253731343282
aF0.0004664179104477612
aF0.0004664179104477612
aF0.0004664179104477612
aF0.0004664179104477612
aF0.02751865671641791
aF0.0004664179104477612
aF0.0004664179104477612
aF0.23367537313432835
aF0.0004664179104477612
aF0.0009328358208955224
aF0.0004664179104477612
aF0.0065298507462686565
aF0.28638059701492535
aF0.0004664179104477612
aF0.0004664179104477612
aF0.0004664179104477612
aF0.0004664179104477612
aF0.0004664179104477612
aF0.0023320895522388058
aF0.0004664179104477612
aF0.0004664179104477612
aF0.0004664179104477612
aF0.0004664179104477612
aF0.0009328358208955224
aF0.0004664179104477612
aF0.0004664179104477612
aF0.0004664179104477612
aF0.0004664179104477612
aF0.0004664179104477612
aF0.010261194029850746
aF0.0004664179104477612
aF0.0004664179104477612
aF0.0004664179104477612
aF0.006996268656716418
aa(lp79
F0.11620294599018004
aF0.287506819421713
aF0.012547735951991271
aF0.06819421713038734
aF0.1352973267866885
aF0.0010911074740861974
aF0.012274959083469721
aF0.010092744135297326
aF0.0005455537370430987
aF0.0005455537370430987
aF0.00027277686852154935
aF0.0005455537370430987
aF0.014729950900163666
aF0.0024549918166939444
aF0.00027277686852154935
aF0.00027277686852154935
aF0.00027277686852154935
aF0.1303873431533006
aF0.01691216584833606
aF0.00027277686852154935
aF0.009274413529732678
aF0.0008183306055646482
aF0.01718494271685761
aF0.0019094380796508457
aF0.00027277686852154935
aF0.00027277686852154935
aF0.00027277686852154935
aF0.00027277686852154935
aF0.00027277686852154935
aF0.00027277686852154935
aF0.001363884342607747
aF0.00027277686852154935
aF0.00027277686852154935
aF0.00027277686852154935
aF0.012547735951991271
aF0.028914348063284235
aF0.010365521003818877
aF0.0035460992907801418
aF0.00027277686852154935
aF0.00027277686852154935
aF0.00027277686852154935
aF0.0005455537370430987
aF0.00027277686852154935
aF0.00027277686852154935
aF0.00027277686852154935
aF0.00027277686852154935
aF0.00027277686852154935
aF0.00027277686852154935
aF0.0005455537370430987
aF0.00027277686852154935
aF0.04937261320240044
aF0.0008183306055646482
aF0.00027277686852154935
aF0.00027277686852154935
aF0.0008183306055646482
aF0.00027277686852154935
aF0.00027277686852154935
aF0.00027277686852154935
aF0.00027277686852154935
aF0.00027277686852154935
aF0.00027277686852154935
aF0.00027277686852154935
aF0.0005455537370430987
aF0.00027277686852154935
aF0.00027277686852154935
aF0.00027277686852154935
aF0.0005455537370430987
aF0.001363884342607747
aF0.00027277686852154935
aF0.00027277686852154935
aF0.00027277686852154935
aF0.00027277686852154935
aF0.00027277686852154935
aF0.00027277686852154935
aF0.00027277686852154935
aF0.0005455537370430987
aF0.00027277686852154935
aF0.00027277686852154935
aF0.00027277686852154935
aF0.00027277686852154935
aF0.0005455537370430987
aF0.00027277686852154935
aF0.028368794326241134
aF0.0010911074740861974
aF0.00027277686852154935
aF0.00027277686852154935
aF0.00027277686852154935
aF0.00027277686852154935
aF0.005455537370430988
aa(lp80
F0.03169014084507042
aF0.0035211267605633804
aF0.0035211267605633804
aF0.0035211267605633804
aF0.0035211267605633804
aF0.0035211267605633804
aF0.0035211267605633804
aF0.0035211267605633804
aF0.0035211267605633804
aF0.0035211267605633804
aF0.0035211267605633804
aF0.0035211267605633804
aF0.0035211267605633804
aF0.0035211267605633804
aF0.0035211267605633804
aF0.028169014084507043
aF0.0035211267605633804
aF0.0035211267605633804
aF0.0035211267605633804
aF0.0035211267605633804
aF0.0035211267605633804
aF0.0035211267605633804
aF0.0035211267605633804
aF0.0035211267605633804
aF0.02112676056338028
aF0.0035211267605633804
aF0.0035211267605633804
aF0.0035211267605633804
aF0.0035211267605633804
aF0.0035211267605633804
aF0.0035211267605633804
aF0.0035211267605633804
aF0.0035211267605633804
aF0.0035211267605633804
aF0.0035211267605633804
aF0.0035211267605633804
aF0.0035211267605633804
aF0.0035211267605633804
aF0.0035211267605633804
aF0.0035211267605633804
aF0.0035211267605633804
aF0.09154929577464789
aF0.0035211267605633804
aF0.0035211267605633804
aF0.0035211267605633804
aF0.0035211267605633804
aF0.0035211267605633804
aF0.0035211267605633804
aF0.02112676056338028
aF0.0035211267605633804
aF0.0035211267605633804
aF0.017605633802816902
aF0.0035211267605633804
aF0.0035211267605633804
aF0.0035211267605633804
aF0.0035211267605633804
aF0.0035211267605633804
aF0.0035211267605633804
aF0.0035211267605633804
aF0.03169014084507042
aF0.0035211267605633804
aF0.0035211267605633804
aF0.007042253521126761
aF0.0035211267605633804
aF0.0035211267605633804
aF0.0035211267605633804
aF0.03873239436619718
aF0.02112676056338028
aF0.0035211267605633804
aF0.0035211267605633804
aF0.0035211267605633804
aF0.0035211267605633804
aF0.0035211267605633804
aF0.01056338028169014
aF0.0035211267605633804
aF0.0035211267605633804
aF0.0035211267605633804
aF0.0035211267605633804
aF0.0035211267605633804
aF0.0035211267605633804
aF0.0035211267605633804
aF0.0035211267605633804
aF0.0035211267605633804
aF0.0035211267605633804
aF0.017605633802816902
aF0.0035211267605633804
aF0.0035211267605633804
aF0.0035211267605633804
aF0.39436619718309857
aa(lp81
F0.06525007517289766
aF0.23574220707627544
aF0.00040092212087801946
aF0.20086198255988774
aF0.19745414453242457
aF0.019043800741705922
aF0.0027062243159266313
aF0.003608299087902175
aF0.00761752029668237
aF0.0009020747719755437
aF0.00010023053021950487
aF0.00010023053021950487
aF0.0008018442417560389
aF0.00010023053021950487
aF0.00010023053021950487
aF0.0008018442417560389
aF0.00010023053021950487
aF0.017440112258193845
aF0.0023053021950486118
aF0.00010023053021950487
aF0.0018041495439510874
aF0.00010023053021950487
aF0.0008018442417560389
aF0.0015034579532925728
aF0.0010023053021950487
aF0.00020046106043900973
aF0.00010023053021950487
aF0.00010023053021950487
aF0.00010023053021950487
aF0.00010023053021950487
aF0.0032073769670241557
aF0.00010023053021950487
aF0.00010023053021950487
aF0.00010023053021950487
aF0.05602886639270322
aF0.00010023053021950487
aF0.001403227423073068
aF0.0015034579532925728
aF0.002806454846146136
aF0.00010023053021950487
aF0.00010023053021950487
aF0.0015034579532925728
aF0.1278941565600882
aF0.00010023053021950487
aF0.00010023053021950487
aF0.0005011526510975244
aF0.00010023053021950487
aF0.00010023053021950487
aF0.00020046106043900973
aF0.00010023053021950487
aF0.0013029968928535633
aF0.0015034579532925728
aF0.000701613711536534
aF0.00010023053021950487
aF0.00020046106043900973
aF0.00020046106043900973
aF0.00010023053021950487
aF0.00010023053021950487
aF0.00010023053021950487
aF0.004710834920316729
aF0.00010023053021950487
aF0.00010023053021950487
aF0.004209682269219204
aF0.00010023053021950487
aF0.00010023053021950487
aF0.00010023053021950487
aF0.002205071664829107
aF0.00040092212087801946
aF0.00010023053021950487
aF0.00010023053021950487
aF0.00010023053021950487
aF0.00010023053021950487
aF0.00010023053021950487
aF0.00010023053021950487
aF0.00010023053021950487
aF0.0005011526510975244
aF0.00040092212087801946
aF0.00010023053021950487
aF0.00010023053021950487
aF0.00010023053021950487
aF0.00010023053021950487
aF0.00010023053021950487
aF0.00010023053021950487
aF0.00040092212087801946
aF0.002806454846146136
aF0.00010023053021950487
aF0.00010023053021950487
aF0.00010023053021950487
aF0.02044702816477899
aa(lp82
F0.0048543689320388345
aF0.0048543689320388345
aF0.0048543689320388345
aF0.13106796116504854
aF0.0048543689320388345
aF0.0048543689320388345
aF0.0048543689320388345
aF0.0048543689320388345
aF0.0048543689320388345
aF0.0048543689320388345
aF0.0048543689320388345
aF0.0048543689320388345
aF0.0048543689320388345
aF0.0048543689320388345
aF0.0048543689320388345
aF0.0048543689320388345
aF0.0048543689320388345
aF0.009708737864077669
aF0.0048543689320388345
aF0.0048543689320388345
aF0.0048543689320388345
aF0.0048543689320388345
aF0.0048543689320388345
aF0.0048543689320388345
aF0.03398058252427184
aF0.0048543689320388345
aF0.0048543689320388345
aF0.0048543689320388345
aF0.0048543689320388345
aF0.0048543689320388345
aF0.0048543689320388345
aF0.0048543689320388345
aF0.0048543689320388345
aF0.0048543689320388345
aF0.0048543689320388345
aF0.0048543689320388345
aF0.0048543689320388345
aF0.0048543689320388345
aF0.009708737864077669
aF0.0048543689320388345
aF0.0048543689320388345
aF0.0048543689320388345
aF0.009708737864077669
aF0.0048543689320388345
aF0.0048543689320388345
aF0.0048543689320388345
aF0.0048543689320388345
aF0.0048543689320388345
aF0.0048543689320388345
aF0.0048543689320388345
aF0.0048543689320388345
aF0.0048543689320388345
aF0.0048543689320388345
aF0.0048543689320388345
aF0.0048543689320388345
aF0.0048543689320388345
aF0.0048543689320388345
aF0.0048543689320388345
aF0.0048543689320388345
aF0.1650485436893204
aF0.0048543689320388345
aF0.0048543689320388345
aF0.08737864077669903
aF0.0048543689320388345
aF0.0048543689320388345
aF0.0048543689320388345
aF0.1407766990291262
aF0.0048543689320388345
aF0.0048543689320388345
aF0.0048543689320388345
aF0.0048543689320388345
aF0.0048543689320388345
aF0.0048543689320388345
aF0.0048543689320388345
aF0.0048543689320388345
aF0.0048543689320388345
aF0.0048543689320388345
aF0.0048543689320388345
aF0.0048543689320388345
aF0.0048543689320388345
aF0.0048543689320388345
aF0.0048543689320388345
aF0.0048543689320388345
aF0.0048543689320388345
aF0.0048543689320388345
aF0.0048543689320388345
aF0.0048543689320388345
aF0.0048543689320388345
aF0.024271844660194174
aa(lp83
F0.017993079584775088
aF0.04083044982698962
aF0.0006920415224913495
aF0.12179930795847752
aF0.09619377162629758
aF0.01314878892733564
aF0.0006920415224913495
aF0.007612456747404845
aF0.0034602076124567475
aF0.0034602076124567475
aF0.0006920415224913495
aF0.0006920415224913495
aF0.0006920415224913495
aF0.001384083044982699
aF0.0006920415224913495
aF0.008304498269896194
aF0.0006920415224913495
aF0.011072664359861591
aF0.0006920415224913495
aF0.0006920415224913495
aF0.0006920415224913495
aF0.0006920415224913495
aF0.0006920415224913495
aF0.0006920415224913495
aF0.002768166089965398
aF0.0006920415224913495
aF0.0006920415224913495
aF0.0006920415224913495
aF0.0006920415224913495
aF0.0006920415224913495
aF0.02698961937716263
aF0.0006920415224913495
aF0.0006920415224913495
aF0.0006920415224913495
aF0.0698961937716263
aF0.0006920415224913495
aF0.0006920415224913495
aF0.001384083044982699
aF0.03529411764705882
aF0.0006920415224913495
aF0.0006920415224913495
aF0.02698961937716263
aF0.05051903114186851
aF0.0006920415224913495
aF0.0006920415224913495
aF0.004844290657439446
aF0.0006920415224913495
aF0.0006920415224913495
aF0.01660899653979239
aF0.0006920415224913495
aF0.0006920415224913495
aF0.017993079584775088
aF0.001384083044982699
aF0.0006920415224913495
aF0.0020761245674740486
aF0.001384083044982699
aF0.0006920415224913495
aF0.0006920415224913495
aF0.0006920415224913495
aF0.02975778546712803
aF0.001384083044982699
aF0.0006920415224913495
aF0.03044982698961938
aF0.0006920415224913495
aF0.0006920415224913495
aF0.0006920415224913495
aF0.005536332179930796
aF0.2823529411764706
aF0.0006920415224913495
aF0.0006920415224913495
aF0.0006920415224913495
aF0.0006920415224913495
aF0.0006920415224913495
aF0.001384083044982699
aF0.0006920415224913495
aF0.0006920415224913495
aF0.0020761245674740486
aF0.0006920415224913495
aF0.0006920415224913495
aF0.0006920415224913495
aF0.0006920415224913495
aF0.0006920415224913495
aF0.0006920415224913495
aF0.0006920415224913495
aF0.01384083044982699
aF0.0006920415224913495
aF0.0006920415224913495
aF0.0006920415224913495
aF0.011072664359861591
aa(lp84
F0.0016750418760469012
aF0.0016750418760469012
aF0.0016750418760469012
aF0.0016750418760469012
aF0.0016750418760469012
aF0.0016750418760469012
aF0.0016750418760469012
aF0.0016750418760469012
aF0.0016750418760469012
aF0.020100502512562814
aF0.0016750418760469012
aF0.02847571189279732
aF0.0016750418760469012
aF0.0016750418760469012
aF0.006700167504187605
aF0.03685092127303183
aF0.0016750418760469012
aF0.0016750418760469012
aF0.0016750418760469012
aF0.0016750418760469012
aF0.0016750418760469012
aF0.0016750418760469012
aF0.0016750418760469012
aF0.0016750418760469012
aF0.018425460636515914
aF0.0016750418760469012
aF0.0016750418760469012
aF0.0016750418760469012
aF0.0016750418760469012
aF0.0016750418760469012
aF0.06197654941373534
aF0.0016750418760469012
aF0.0016750418760469012
aF0.0016750418760469012
aF0.0016750418760469012
aF0.0016750418760469012
aF0.0033500837520938024
aF0.0016750418760469012
aF0.08375209380234507
aF0.0033500837520938024
aF0.0033500837520938024
aF0.0016750418760469012
aF0.0016750418760469012
aF0.0016750418760469012
aF0.0016750418760469012
aF0.035175879396984924
aF0.006700167504187605
aF0.0016750418760469012
aF0.020100502512562814
aF0.0033500837520938024
aF0.0016750418760469012
aF0.01675041876046901
aF0.0016750418760469012
aF0.01675041876046901
aF0.008375209380234505
aF0.0016750418760469012
aF0.0016750418760469012
aF0.0016750418760469012
aF0.0016750418760469012
aF0.02680067001675042
aF0.0016750418760469012
aF0.005025125628140704
aF0.09045226130653267
aF0.0016750418760469012
aF0.02847571189279732
aF0.0016750418760469012
aF0.038525963149078725
aF0.18592964824120603
aF0.006700167504187605
aF0.0016750418760469012
aF0.0016750418760469012
aF0.0016750418760469012
aF0.0016750418760469012
aF0.01507537688442211
aF0.0016750418760469012
aF0.0016750418760469012
aF0.0016750418760469012
aF0.0033500837520938024
aF0.05360134003350084
aF0.0016750418760469012
aF0.0016750418760469012
aF0.0016750418760469012
aF0.0016750418760469012
aF0.0016750418760469012
aF0.031825795644891124
aF0.0016750418760469012
aF0.020100502512562814
aF0.005025125628140704
aF0.018425460636515914
aa(lp85
F0.08545925217783602
aF0.10472947570813237
aF0.0011708218309934798
aF0.23557150069282576
aF0.11577172196741034
aF0.030194313458006165
aF0.0030828061054598965
aF0.006380441904680065
aF0.012879040140928279
aF0.1084675123795611
aF0.00036521047939246164
aF0.0005907816578407468
aF0.001267495193185602
aF2.1482969376027154e-05
aF0.0006981965047208825
aF0.002287936238546892
aF1.0741484688013577e-05
aF0.015585894282307701
aF0.004951824441174259
aF1.0741484688013577e-05
aF0.01050517202487728
aF0.00011815633156814935
aF0.006187095180295821
aF0.00018260523969623082
aF0.005940041032471508
aF3.222445406404073e-05
aF1.0741484688013577e-05
aF1.0741484688013577e-05
aF4.296593875205431e-05
aF1.0741484688013577e-05
aF0.006734910899384513
aF1.0741484688013577e-05
aF1.0741484688013577e-05
aF2.1482969376027154e-05
aF0.07314951072537246
aF9.66733621921222e-05
aF0.002996874227955788
aF0.01841090475525527
aF0.0035339484623564668
aF1.0741484688013577e-05
aF1.0741484688013577e-05
aF0.0011600803463054663
aF7.519039281609504e-05
aF1.0741484688013577e-05
aF1.0741484688013577e-05
aF0.0012889781625616292
aF2.1482969376027154e-05
aF7.519039281609504e-05
aF0.004446974660837621
aF1.0741484688013577e-05
aF0.0007519039281609504
aF0.0024490585088670956
aF2.1482969376027154e-05
aF1.0741484688013577e-05
aF0.001396393009441765
aF1.0741484688013577e-05
aF1.0741484688013577e-05
aF1.0741484688013577e-05
aF1.0741484688013577e-05
aF0.0071645702869050564
aF9.66733621921222e-05
aF1.0741484688013577e-05
aF0.014694351053202574
aF3.222445406404073e-05
aF1.0741484688013577e-05
aF1.0741484688013577e-05
aF0.00630525151186397
aF0.08219384083267989
aF1.0741484688013577e-05
aF9.66733621921222e-05
aF1.0741484688013577e-05
aF3.222445406404073e-05
aF1.0741484688013577e-05
aF0.001041924014737317
aF1.0741484688013577e-05
aF0.0002470541478243123
aF0.000354468994704448
aF1.0741484688013577e-05
aF0.0003866934487684888
aF1.0741484688013577e-05
aF0.0016971545807061453
aF0.00012889781625616292
aF0.00017186375500821723
aF0.00010741484688013577
aF0.00022557117844828513
aF1.0741484688013577e-05
aF1.0741484688013577e-05
aF1.0741484688013577e-05
aF0.015596635766995715
aa(lp86
F0.00025759917568263783
aF0.00025759917568263783
aF0.00025759917568263783
aF0.04945904173106646
aF0.00025759917568263783
aF0.0007727975270479134
aF0.00025759917568263783
aF0.00025759917568263783
aF0.00025759917568263783
aF0.014683153013910355
aF0.00025759917568263783
aF0.0038639876352395673
aF0.00025759917568263783
aF0.00025759917568263783
aF0.00025759917568263783
aF0.0030911901081916537
aF0.00025759917568263783
aF0.002833590932509016
aF0.00025759917568263783
aF0.00025759917568263783
aF0.00025759917568263783
aF0.00025759917568263783
aF0.00025759917568263783
aF0.00025759917568263783
aF0.004894384337970119
aF0.00025759917568263783
aF0.00025759917568263783
aF0.00025759917568263783
aF0.00025759917568263783
aF0.00025759917568263783
aF0.08088614116434828
aF0.00025759917568263783
aF0.00025759917568263783
aF0.00025759917568263783
aF0.00025759917568263783
aF0.00025759917568263783
aF0.01184956208140134
aF0.00025759917568263783
aF0.004121586810922205
aF0.00025759917568263783
aF0.00025759917568263783
aF0.00025759917568263783
aF0.00025759917568263783
aF0.00025759917568263783
aF0.00025759917568263783
aF0.0007727975270479134
aF0.00025759917568263783
aF0.00025759917568263783
aF0.010303967027305513
aF0.00025759917568263783
aF0.00025759917568263783
aF0.002575991756826378
aF0.00025759917568263783
aF0.00025759917568263783
aF0.0036063884595569293
aF0.00025759917568263783
aF0.00025759917568263783
aF0.00025759917568263783
aF0.00025759917568263783
aF0.018031942297784646
aF0.00025759917568263783
aF0.00025759917568263783
aF0.06439979392065945
aF0.00025759917568263783
aF0.00025759917568263783
aF0.00025759917568263783
aF0.014425553838227717
aF0.67284904688305
aF0.00025759917568263783
aF0.00025759917568263783
aF0.00025759917568263783
aF0.00025759917568263783
aF0.00025759917568263783
aF0.008500772797527048
aF0.00025759917568263783
aF0.00025759917568263783
aF0.0005151983513652757
aF0.00025759917568263783
aF0.00025759917568263783
aF0.00025759917568263783
aF0.00025759917568263783
aF0.00025759917568263783
aF0.00025759917568263783
aF0.00025759917568263783
aF0.0007727975270479134
aF0.00025759917568263783
aF0.00025759917568263783
aF0.00025759917568263783
aF0.0095311695002576
aa(lp87
F0.0763908109604207
aF0.09078328259064489
aF0.0001383891502906172
aF0.1858566288402989
aF0.16094658178798782
aF0.02034320509272073
aF0.0008303349017437033
aF0.011209521173539995
aF0.0077497924162745644
aF0.0337669526709106
aF0.0001383891502906172
aF0.0006919457514530861
aF0.0001383891502906172
aF0.0001383891502906172
aF0.0001383891502906172
aF0.0001383891502906172
aF0.0001383891502906172
aF0.007057846664821478
aF0.0001383891502906172
aF0.0001383891502906172
aF0.013838915029061722
aF0.0002767783005812344
aF0.00249100470523111
aF0.0001383891502906172
aF0.0011071132023249377
aF0.0001383891502906172
aF0.0001383891502906172
aF0.0001383891502906172
aF0.0001383891502906172
aF0.0001383891502906172
aF0.003736507057846665
aF0.0001383891502906172
aF0.0001383891502906172
aF0.0001383891502906172
aF0.21657902020481595
aF0.0001383891502906172
aF0.0008303349017437033
aF0.008026570716855799
aF0.00041516745087185166
aF0.0001383891502906172
aF0.0001383891502906172
aF0.0001383891502906172
aF0.0001383891502906172
aF0.0001383891502906172
aF0.0001383891502906172
aF0.0008303349017437033
aF0.0001383891502906172
aF0.0001383891502906172
aF0.0002767783005812344
aF0.0001383891502906172
aF0.0001383891502906172
aF0.0001383891502906172
aF0.0001383891502906172
aF0.0001383891502906172
aF0.0015222806531967894
aF0.0001383891502906172
aF0.0001383891502906172
aF0.0001383891502906172
aF0.0001383891502906172
aF0.00498200941046222
aF0.00041516745087185166
aF0.0001383891502906172
aF0.01646830888458345
aF0.0001383891502906172
aF0.0001383891502906172
aF0.0001383891502906172
aF0.0017990589537780239
aF0.028092997508995295
aF0.0001383891502906172
aF0.0001383891502906172
aF0.0001383891502906172
aF0.0001383891502906172
aF0.0001383891502906172
aF0.0001383891502906172
aF0.0001383891502906172
aF0.0001383891502906172
aF0.0005535566011624688
aF0.0001383891502906172
aF0.0001383891502906172
aF0.0001383891502906172
aF0.0001383891502906172
aF0.0001383891502906172
aF0.0001383891502906172
aF0.00041516745087185166
aF0.0001383891502906172
aF0.0001383891502906172
aF0.0001383891502906172
aF0.0001383891502906172
aF0.09368945474674785
aa(lp88
F0.002531645569620253
aF0.002531645569620253
aF0.002531645569620253
aF0.012658227848101266
aF0.002531645569620253
aF0.002531645569620253
aF0.002531645569620253
aF0.002531645569620253
aF0.002531645569620253
aF0.005063291139240506
aF0.002531645569620253
aF0.002531645569620253
aF0.002531645569620253
aF0.002531645569620253
aF0.002531645569620253
aF0.005063291139240506
aF0.002531645569620253
aF0.002531645569620253
aF0.002531645569620253
aF0.002531645569620253
aF0.002531645569620253
aF0.002531645569620253
aF0.002531645569620253
aF0.002531645569620253
aF0.002531645569620253
aF0.002531645569620253
aF0.002531645569620253
aF0.002531645569620253
aF0.002531645569620253
aF0.002531645569620253
aF0.012658227848101266
aF0.002531645569620253
aF0.002531645569620253
aF0.002531645569620253
aF0.002531645569620253
aF0.002531645569620253
aF0.002531645569620253
aF0.002531645569620253
aF0.010126582278481013
aF0.002531645569620253
aF0.002531645569620253
aF0.002531645569620253
aF0.002531645569620253
aF0.002531645569620253
aF0.002531645569620253
aF0.002531645569620253
aF0.002531645569620253
aF0.002531645569620253
aF0.002531645569620253
aF0.002531645569620253
aF0.002531645569620253
aF0.002531645569620253
aF0.002531645569620253
aF0.002531645569620253
aF0.002531645569620253
aF0.002531645569620253
aF0.002531645569620253
aF0.002531645569620253
aF0.002531645569620253
aF0.0379746835443038
aF0.002531645569620253
aF0.002531645569620253
aF0.005063291139240506
aF0.002531645569620253
aF0.002531645569620253
aF0.002531645569620253
aF0.005063291139240506
aF0.6962025316455697
aF0.002531645569620253
aF0.002531645569620253
aF0.002531645569620253
aF0.002531645569620253
aF0.002531645569620253
aF0.002531645569620253
aF0.002531645569620253
aF0.002531645569620253
aF0.007594936708860759
aF0.002531645569620253
aF0.002531645569620253
aF0.002531645569620253
aF0.002531645569620253
aF0.002531645569620253
aF0.002531645569620253
aF0.002531645569620253
aF0.002531645569620253
aF0.002531645569620253
aF0.002531645569620253
aF0.002531645569620253
aF0.005063291139240506
aa(lp89
F0.01301943998573212
aF0.12926336026697863
aF0.005809928872202725
aF0.02511993180437286
aF0.03068803221155154
aF0.0029714672639829754
aF0.0009219710229041785
aF0.00012695994413762458
aF5.4411404630410535e-05
aF0.03103566063002361
aF0.0006136397299985188
aF0.022759081414575607
aF0.00029926272546725794
aF0.0020404276736403952
aF0.0029563529849189725
aF0.03839026882256743
aF1.209142325120234e-05
aF0.03140142618337248
aF0.003557901291666289
aF6.952568369441346e-05
aF0.0011637994879282253
aF1.209142325120234e-05
aF0.0003446055626592667
aF0.00022066847433444272
aF0.02948191274224411
aF2.418284650240468e-05
aF3.022855812800585e-06
aF3.022855812800585e-06
aF6.347997206881229e-05
aF3.022855812800585e-06
aF0.04215674716531696
aF2.1159990689604098e-05
aF0.0003899483998512755
aF0.00017834849295523454
aF0.0013451708366962604
aF6.04571162560117e-06
aF0.0008947653205889732
aF0.00015416564645282985
aF0.10652846169890542
aF3.022855812800585e-06
aF0.00022973704177284447
aF0.06262752672960252
aF0.00013300565576322576
aF0.0002629884557136509
aF4.534283719200878e-05
aF0.02748682790579572
aF0.00021159990689604096
aF0.004473826602944866
aF0.033508356684894484
aF6.04571162560117e-06
aF0.00010882280926082107
aF0.1208416839725162
aF0.0019406734318179757
aF0.0002690341673392521
aF0.015090096217500522
aF5.1388548817609946e-05
aF2.1159990689604098e-05
aF0.0007557139532001463
aF5.1388548817609946e-05
aF0.050194520771553716
aF0.00013905136738882691
aF2.1159990689604098e-05
aF0.02938518135623449
aF0.01668616408665923
aF7.254853950721405e-05
aF4.836569300480936e-05
aF0.01043792112160042
aF0.050330549283129744
aF1.8137134876803512e-05
aF0.0002932170138416568
aF3.022855812800585e-06
aF0.0004352912370432843
aF3.022855812800585e-06
aF0.010477218247166829
aF3.022855812800585e-06
aF6.04571162560117e-06
aF0.0071430082856477825
aF1.209142325120234e-05
aF0.006626099941658883
aF3.022855812800585e-06
aF0.0023517818223588553
aF0.00015114279064002927
aF6.04571162560117e-06
aF0.0004897026416736948
aF0.020129196857439097
aF4.2319981379208196e-05
aF0.00010579995344802048
aF0.00010277709763521989
aF0.0020585648085171986
aa.